(dp0
S'METTS MARK'
p1
(dp2
S'salary'
p3
I365788
sS'to_messages'
p4
I807
sS'deferral_payments'
p5
I0
sS'total_payments'
p6
I1061827
sS'loan_advances'
p7
I0
sS'bonus'
p8
I600000
sS'email_address'
p9
S'mark.metts@enron.com'
p10
sS'restricted_stock_deferred'
p11
I0
sS'total_stock_value'
p12
I585062
sS'shared_receipt_with_poi'
p13
I702
sS'long_term_incentive'
p14
I0
sS'exercised_stock_options'
p15
I0
sS'from_messages'
p16
I29
sS'other'
p17
I1740
sS'from_poi_to_this_person'
p18
I38
sS'from_this_person_to_poi'
p19
I1
sS'poi'
p20
I0
sS'deferred_income'
p21
I0
sS'expenses'
p22
I94299
sS'restricted_stock'
p23
I585062
sS'director_fees'
p24
I0
ssS'BAXTER JOHN C'
p25
(dp26
g3
I267102
sg4
S'NaN'
p27
sg5
I1295738
sg6
I5634343
sg7
I0
sg8
I1200000
sg9
g27
sg11
I0
sg12
I10623258
sg13
g27
sg14
I1586055
sg15
I6680544
sg16
g27
sg17
I2660303
sg18
g27
sg19
g27
sg20
I0
sg21
I-1386055
sg22
I11200
sg23
I3942714
sg24
I0
ssS'ELLIOTT STEVEN'
p28
(dp29
g3
I170941
sg4
g27
sg5
I0
sg6
I211725
sg7
I0
sg8
I350000
sg9
S'steven.elliott@enron.com'
p30
sg11
I0
sg12
I6678735
sg13
g27
sg14
I0
sg15
I4890344
sg16
g27
sg17
I12961
sg18
g27
sg19
g27
sg20
I0
sg21
I-400729
sg22
I78552
sg23
I1788391
sg24
I0
ssS'CORDES WILLIAM R'
p31
(dp32
g3
I0
sg4
I764
sg5
I0
sg6
I0
sg7
I0
sg8
I0
sg9
S'bill.cordes@enron.com'
p33
sg11
I0
sg12
I1038185
sg13
I58
sg14
I0
sg15
I651850
sg16
I12
sg17
I0
sg18
I10
sg19
I0
sg20
I0
sg21
I0
sg22
I0
sg23
I386335
sg24
I0
ssS'HANNON KEVIN P'
p34
(dp35
g3
I243293
sg4
I1045
sg5
I0
sg6
I288682
sg7
I0
sg8
I1500000
sg9
S'kevin.hannon@enron.com'
p36
sg11
I0
sg12
I6391065
sg13
I1035
sg14
I1617011
sg15
I5538001
sg16
I32
sg17
I11350
sg18
I32
sg19
I21
sg20
I1
sg21
I-3117011
sg22
I34039
sg23
I853064
sg24
I0
ssS'MORDAUNT KRISTINA M'
p37
(dp38
g3
I267093
sg4
g27
sg5
I0
sg6
I628522
sg7
I0
sg8
I325000
sg9
S'kristina.mordaunt@enron.com'
p39
sg11
I0
sg12
I208510
sg13
g27
sg14
I0
sg15
I0
sg16
g27
sg17
I1411
sg18
g27
sg19
g27
sg20
I0
sg21
I0
sg22
I35018
sg23
I208510
sg24
I0
ssS'MEYER ROCKFORD G'
p40
(dp41
g3
I0
sg4
I232
sg5
I1848227
sg6
I1848227
sg7
I0
sg8
I0
sg9
S'rockford.meyer@enron.com'
p42
sg11
I0
sg12
I955873
sg13
I22
sg14
I0
sg15
I493489
sg16
I28
sg17
I0
sg18
I0
sg19
I0
sg20
I0
sg21
I0
sg22
I0
sg23
I462384
sg24
I0
ssS'MCMAHON JEFFREY'
p43
(dp44
g3
I370448
sg4
I2355
sg5
I0
sg6
I4099771
sg7
I0
sg8
I2600000
sg9
S'jeffrey.mcmahon@enron.com'
p45
sg11
I0
sg12
I1662855
sg13
I2228
sg14
I694862
sg15
I1104054
sg16
I48
sg17
I297353
sg18
I58
sg19
I26
sg20
I0
sg21
I0
sg22
I137108
sg23
I558801
sg24
I0
ssS'HORTON STANLEY C'
p46
(dp47
g3
I0
sg4
I2350
sg5
I3131860
sg6
I3131860
sg7
I0
sg8
I0
sg9
S'stanley.horton@enron.com'
p48
sg11
I0
sg12
I7256648
sg13
I1074
sg14
I0
sg15
I5210569
sg16
I1073
sg17
I0
sg18
I44
sg19
I15
sg20
I0
sg21
I0
sg22
I0
sg23
I2046079
sg24
I0
ssS'PIPER GREGORY F'
p49
(dp50
g3
I197091
sg4
I1238
sg5
I1130036
sg6
I1737629
sg7
I0
sg8
I400000
sg9
S'greg.piper@enron.com'
p51
sg11
I-409554
sg12
I880290
sg13
I742
sg14
I0
sg15
I880290
sg16
I222
sg17
I778
sg18
I61
sg19
I48
sg20
I0
sg21
I-33333
sg22
I43057
sg23
I409554
sg24
I0
ssS'HUMPHREY GENE E'
p52
(dp53
g3
I130724
sg4
I128
sg5
I2964506
sg6
I3100224
sg7
I0
sg8
I0
sg9
S'gene.humphrey@enron.com'
p54
sg11
I0
sg12
I2282768
sg13
I119
sg14
I0
sg15
I2282768
sg16
I17
sg17
I0
sg18
I10
sg19
I17
sg20
I0
sg21
I0
sg22
I4994
sg23
I0
sg24
I0
ssS'UMANOFF ADAM S'
p55
(dp56
g3
I288589
sg4
I111
sg5
I0
sg6
I1130461
sg7
I0
sg8
I788750
sg9
S'adam.umanoff@enron.com'
p57
sg11
I0
sg12
I0
sg13
I41
sg14
I0
sg15
I0
sg16
I18
sg17
I0
sg18
I12
sg19
I0
sg20
I0
sg21
I0
sg22
I53122
sg23
I0
sg24
I0
ssS'BLACHMAN JEREMY M'
p58
(dp59
g3
I248546
sg4
I2475
sg5
I0
sg6
I2014835
sg7
I0
sg8
I850000
sg9
S'jeremy.blachman@enron.com'
p60
sg11
I0
sg12
I954354
sg13
I2326
sg14
I831809
sg15
I765313
sg16
I14
sg17
I272
sg18
I25
sg19
I2
sg20
I0
sg21
I0
sg22
I84208
sg23
I189041
sg24
I0
ssS'SUNDE MARTIN'
p61
(dp62
g3
I257486
sg4
I2647
sg5
I0
sg6
I1545059
sg7
I0
sg8
I700000
sg9
S'marty.sunde@enron.com'
p63
sg11
I0
sg12
I698920
sg13
I2565
sg14
I476451
sg15
I0
sg16
I38
sg17
I111122
sg18
I37
sg19
I13
sg20
I0
sg21
I0
sg22
I0
sg23
I698920
sg24
I0
ssS'GIBBS DANA R'
p64
(dp65
g3
I0
sg4
I169
sg5
I504610
sg6
I966522
sg7
I0
sg8
I0
sg9
S'dana.gibbs@enron.com'
p66
sg11
I0
sg12
I2218275
sg13
I23
sg14
I461912
sg15
I2218275
sg16
I12
sg17
I0
sg18
I0
sg19
I0
sg20
I0
sg21
I0
sg22
I0
sg23
I0
sg24
I0
ssS'LOWRY CHARLES P'
p67
(dp68
g3
I0
sg4
g27
sg5
I0
sg6
I0
sg7
I0
sg8
I0
sg9
g27
sg11
I-153686
sg12
I372205
sg13
g27
sg14
I0
sg15
I372205
sg16
g27
sg17
I0
sg18
g27
sg19
g27
sg20
I0
sg21
I0
sg22
I0
sg23
I153686
sg24
I0
ssS'COLWELL WESLEY'
p69
(dp70
g3
I288542
sg4
I1758
sg5
I27610
sg6
I1490344
sg7
I0
sg8
I1200000
sg9
S'wes.colwell@enron.com'
p71
sg11
I0
sg12
I698242
sg13
I1132
sg14
I0
sg15
I0
sg16
I40
sg17
I101740
sg18
I240
sg19
I11
sg20
I1
sg21
I-144062
sg22
I16514
sg23
I698242
sg24
I0
ssS'MULLER MARK S'
p72
(dp73
g3
I251654
sg4
I136
sg5
I842924
sg6
I3202070
sg7
I0
sg8
I1100000
sg9
S's..muller@enron.com'
p74
sg11
I0
sg12
I1416848
sg13
I114
sg14
I1725545
sg15
I1056320
sg16
I16
sg17
I947
sg18
I12
sg19
I0
sg20
I0
sg21
I-719000
sg22
I0
sg23
I360528
sg24
I0
ssS'JACKSON CHARLENE R'
p75
(dp76
g3
I288558
sg4
I258
sg5
I0
sg6
I551174
sg7
I0
sg8
I250000
sg9
S'charlene.jackson@enron.com'
p77
sg11
I0
sg12
I725735
sg13
I117
sg14
I0
sg15
I185063
sg16
I56
sg17
I2435
sg18
I25
sg19
I19
sg20
I0
sg21
I0
sg22
I10181
sg23
I540672
sg24
I0
ssS'WESTFAHL RICHARD K'
p78
(dp79
g3
I63744
sg4
g27
sg5
I0
sg6
I762135
sg7
I0
sg8
I0
sg9
S'dick.westfahl@enron.com'
p80
sg11
I0
sg12
I384930
sg13
g27
sg14
I256191
sg15
I0
sg16
g27
sg17
I401130
sg18
g27
sg19
g27
sg20
I0
sg21
I-10800
sg22
I51870
sg23
I384930
sg24
I0
ssS'WALTERS GARETH W'
p81
(dp82
g3
I0
sg4
g27
sg5
I53625
sg6
I87410
sg7
I0
sg8
I0
sg9
g27
sg11
I0
sg12
I1030329
sg13
g27
sg14
I0
sg15
I1030329
sg16
g27
sg17
I0
sg18
g27
sg19
g27
sg20
I0
sg21
I0
sg22
I33785
sg23
I0
sg24
I0
ssS'WALLS JR ROBERT H'
p83
(dp84
g3
I357091
sg4
I671
sg5
I0
sg6
I1798780
sg7
I0
sg8
I850000
sg9
S'rob.walls@enron.com'
p85
sg11
I0
sg12
I5898997
sg13
I215
sg14
I540751
sg15
I4346544
sg16
I146
sg17
I2
sg18
I17
sg19
I0
sg20
I0
sg21
I0
sg22
I50936
sg23
I1552453
sg24
I0
ssS'KITCHEN LOUISE'
p86
(dp87
g3
I271442
sg4
I8305
sg5
I0
sg6
I3471141
sg7
I0
sg8
I3100000
sg9
S'louise.kitchen@enron.com'
p88
sg11
I0
sg12
I547143
sg13
I3669
sg14
I0
sg15
I81042
sg16
I1728
sg17
I93925
sg18
I251
sg19
I194
sg20
I0
sg21
I0
sg22
I5774
sg23
I466101
sg24
I0
ssS'CHAN RONNIE'
p89
(dp90
g3
I0
sg4
g27
sg5
I0
sg6
I0
sg7
I0
sg8
I0
sg9
g27
sg11
I-32460
sg12
I0
sg13
g27
sg14
I0
sg15
I0
sg16
g27
sg17
I0
sg18
g27
sg19
g27
sg20
I0
sg21
I-98784
sg22
I0
sg23
I32460
sg24
I98784
ssS'BELFER ROBERT'
p91
(dp92
g3
I0
sg4
g27
sg5
I-102500
sg6
I102500
sg7
I0
sg8
I0
sg9
g27
sg11
I44093
sg12
I-44093
sg13
g27
sg14
I0
sg15
I3285
sg16
g27
sg17
I0
sg18
g27
sg19
g27
sg20
I0
sg21
I0
sg22
I0
sg23
I0
sg24
I3285
ssS'SHANKMAN JEFFREY A'
p93
(dp94
g3
I304110
sg4
I3221
sg5
I0
sg6
I3038702
sg7
I0
sg8
I2000000
sg9
S'jeffrey.shankman@enron.com'
p95
sg11
I0
sg12
I2072035
sg13
I1730
sg14
I554422
sg15
I1441898
sg16
I2681
sg17
I1191
sg18
I94
sg19
I83
sg20
I0
sg21
I0
sg22
I178979
sg23
I630137
sg24
I0
ssS'WODRASKA JOHN'
p96
(dp97
g3
I0
sg4
g27
sg5
I0
sg6
I189583
sg7
I0
sg8
I0
sg9
S'john.wodraska@enron.com'
p98
sg11
I0
sg12
I0
sg13
g27
sg14
I0
sg15
I0
sg16
g27
sg17
I189583
sg18
g27
sg19
g27
sg20
I0
sg21
I0
sg22
I0
sg23
I0
sg24
I0
ssS'BERGSIEKER RICHARD P'
p99
(dp100
g3
I187922
sg4
I383
sg5
I0
sg6
I618850
sg7
I0
sg8
I250000
sg9
S'rick.bergsieker@enron.com'
p101
sg11
I0
sg12
I659249
sg13
I233
sg14
I180250
sg15
I0
sg16
I59
sg17
I427316
sg18
I4
sg19
I0
sg20
I0
sg21
I-485813
sg22
I59175
sg23
I659249
sg24
I0
ssS'URQUHART JOHN A'
p102
(dp103
g3
I0
sg4
g27
sg5
I0
sg6
I228656
sg7
I0
sg8
I0
sg9
g27
sg11
I0
sg12
I0
sg13
g27
sg14
I0
sg15
I0
sg16
g27
sg17
I0
sg18
g27
sg19
g27
sg20
I0
sg21
I-36666
sg22
I228656
sg23
I0
sg24
I36666
ssS'BIBI PHILIPPE A'
p104
(dp105
g3
I213625
sg4
I1607
sg5
I0
sg6
I2047593
sg7
I0
sg8
I1000000
sg9
S'philippe.bibi@enron.com'
p106
sg11
I0
sg12
I1843816
sg13
I1336
sg14
I369721
sg15
I1465734
sg16
I40
sg17
I425688
sg18
I23
sg19
I8
sg20
I0
sg21
I0
sg22
I38559
sg23
I378082
sg24
I0
ssS'PIRO JIM'
p107
(dp108
g3
I0
sg4
I58
sg5
I0
sg6
I0
sg7
I0
sg8
I0
sg9
S'jim.piro@enron.com'
p109
sg11
I0
sg12
I47304
sg13
I3
sg14
I0
sg15
I0
sg16
I16
sg17
I0
sg18
I0
sg19
I1
sg20
I0
sg21
I0
sg22
I0
sg23
I47304
sg24
I0
ssS'RIEKER PAULA H'
p110
(dp111
g3
I249201
sg4
I1328
sg5
I214678
sg6
I1099100
sg7
I0
sg8
I700000
sg9
S'paula.rieker@enron.com'
p112
sg11
I0
sg12
I1918887
sg13
I1258
sg14
I0
sg15
I1635238
sg16
I82
sg17
I1950
sg18
I35
sg19
I48
sg20
I1
sg21
I-100000
sg22
I33271
sg23
I283649
sg24
I0
ssS'WHALEY DAVID A'
p113
(dp114
g3
I0
sg4
g27
sg5
I0
sg6
I0
sg7
I0
sg8
I0
sg9
g27
sg11
I0
sg12
I98718
sg13
g27
sg14
I0
sg15
I98718
sg16
g27
sg17
I0
sg18
g27
sg19
g27
sg20
I0
sg21
I0
sg22
I0
sg23
I0
sg24
I0
ssS'BECK SALLY W'
p115
(dp116
g3
I231330
sg4
I7315
sg5
I0
sg6
I969068
sg7
I0
sg8
I700000
sg9
S'sally.beck@enron.com'
p117
sg11
I0
sg12
I126027
sg13
I2639
sg14
I0
sg15
I0
sg16
I4343
sg17
I566
sg18
I144
sg19
I386
sg20
I0
sg21
I0
sg22
I37172
sg23
I126027
sg24
I0
ssS'HAUG DAVID L'
p118
(dp119
g3
I0
sg4
I573
sg5
I0
sg6
I475
sg7
I0
sg8
I0
sg9
S'david.haug@enron.com'
p120
sg11
I0
sg12
I2217299
sg13
I471
sg14
I0
sg15
I0
sg16
I19
sg17
I0
sg18
I4
sg19
I7
sg20
I0
sg21
I0
sg22
I475
sg23
I2217299
sg24
I0
ssS'ECHOLS JOHN B'
p121
(dp122
g3
I182245
sg4
g27
sg5
I0
sg6
I2692324
sg7
I0
sg8
I200000
sg9
S'john.echols@enron.com'
p123
sg11
I0
sg12
I1008941
sg13
g27
sg14
I2234774
sg15
I601438
sg16
g27
sg17
I53775
sg18
g27
sg19
g27
sg20
I0
sg21
I0
sg22
I21530
sg23
I407503
sg24
I0
ssS'MENDELSOHN JOHN'
p124
(dp125
g3
I0
sg4
g27
sg5
I0
sg6
I148
sg7
I0
sg8
I0
sg9
g27
sg11
I0
sg12
I0
sg13
g27
sg14
I0
sg15
I0
sg16
g27
sg17
I0
sg18
g27
sg19
g27
sg20
I0
sg21
I-103750
sg22
I148
sg23
I0
sg24
I103750
ssS'HICKERSON GARY J'
p126
(dp127
g3
I211788
sg4
I1320
sg5
I0
sg6
I2081796
sg7
I0
sg8
I1700000
sg9
S'gary.hickerson@enron.com'
p128
sg11
I0
sg12
I441096
sg13
I900
sg14
I69223
sg15
I0
sg16
I27
sg17
I1936
sg18
I40
sg19
I1
sg20
I0
sg21
I0
sg22
I98849
sg23
I441096
sg24
I0
ssS'CLINE KENNETH W'
p129
(dp130
g3
I0
sg4
g27
sg5
I0
sg6
I0
sg7
I0
sg8
I0
sg9
g27
sg11
I-472568
sg12
I189518
sg13
g27
sg14
I0
sg15
I0
sg16
g27
sg17
I0
sg18
g27
sg19
g27
sg20
I0
sg21
I0
sg22
I0
sg23
I662086
sg24
I0
ssS'LEWIS RICHARD'
p131
(dp132
g3
I0
sg4
I952
sg5
I0
sg6
I0
sg7
I0
sg8
I0
sg9
S'richard.lewis@enron.com'
p133
sg11
I0
sg12
I850477
sg13
I739
sg14
I0
sg15
I850477
sg16
I26
sg17
I0
sg18
I10
sg19
I0
sg20
I0
sg21
I0
sg22
I0
sg23
I0
sg24
I0
ssS'HAYES ROBERT E'
p134
(dp135
g3
I0
sg4
I504
sg5
I7961
sg6
I7961
sg7
I0
sg8
I0
sg9
S'robert.hayes@enron.com'
p136
sg11
I0
sg12
I151418
sg13
I50
sg14
I0
sg15
I0
sg16
I12
sg17
I0
sg18
I16
sg19
I0
sg20
I0
sg21
I0
sg22
I0
sg23
I151418
sg24
I0
ssS'KOPPER MICHAEL J'
p137
(dp138
g3
I224305
sg4
g27
sg5
I0
sg6
I2652612
sg7
I0
sg8
I800000
sg9
S'michael.kopper@enron.com'
p139
sg11
I0
sg12
I985032
sg13
g27
sg14
I602671
sg15
I0
sg16
g27
sg17
I907502
sg18
g27
sg19
g27
sg20
I1
sg21
I0
sg22
I118134
sg23
I985032
sg24
I0
ssS'LEFF DANIEL P'
p140
(dp141
g3
I273746
sg4
I2822
sg5
I0
sg6
I2664228
sg7
I0
sg8
I1000000
sg9
S'dan.leff@enron.com'
p142
sg11
I0
sg12
I360528
sg13
I2672
sg14
I1387399
sg15
I0
sg16
I63
sg17
I3083
sg18
I67
sg19
I14
sg20
I0
sg21
I0
sg22
I0
sg23
I360528
sg24
I0
ssS'LAVORATO JOHN J'
p143
(dp144
g3
I339288
sg4
I7259
sg5
I0
sg6
I10425757
sg7
I0
sg8
I8000000
sg9
S'john.lavorato@enron.com'
p145
sg11
I0
sg12
I5167144
sg13
I3962
sg14
I2035380
sg15
I4158995
sg16
I2585
sg17
I1552
sg18
I528
sg19
I411
sg20
I0
sg21
I0
sg22
I49537
sg23
I1008149
sg24
I0
ssS'BERBERIAN DAVID'
p146
(dp147
g3
I216582
sg4
g27
sg5
I0
sg6
I228474
sg7
I0
sg8
I0
sg9
S'david.berberian@enron.com'
p148
sg11
I0
sg12
I2493616
sg13
g27
sg14
I0
sg15
I1624396
sg16
g27
sg17
I0
sg18
g27
sg19
g27
sg20
I0
sg21
I0
sg22
I11892
sg23
I869220
sg24
I0
ssS'DETMERING TIMOTHY J'
p149
(dp150
g3
I210500
sg4
g27
sg5
I875307
sg6
I1204583
sg7
I0
sg8
I425000
sg9
S'timothy.detmering@enron.com'
p151
sg11
I-315068
sg12
I2027865
sg13
g27
sg14
I415657
sg15
I2027865
sg16
g27
sg17
I1105
sg18
g27
sg19
g27
sg20
I0
sg21
I-775241
sg22
I52255
sg23
I315068
sg24
I0
ssS'WAKEHAM JOHN'
p152
(dp153
g3
I0
sg4
g27
sg5
I0
sg6
I213071
sg7
I0
sg8
I0
sg9
g27
sg11
I0
sg12
I0
sg13
g27
sg14
I0
sg15
I0
sg16
g27
sg17
I0
sg18
g27
sg19
g27
sg20
I0
sg21
I0
sg22
I103773
sg23
I0
sg24
I109298
ssS'POWERS WILLIAM'
p154
(dp155
g3
I0
sg4
I653
sg5
I0
sg6
I0
sg7
I0
sg8
I0
sg9
S'ken.powers@enron.com'
p156
sg11
I0
sg12
I0
sg13
I12
sg14
I0
sg15
I0
sg16
I26
sg17
I0
sg18
I0
sg19
I0
sg20
I0
sg21
I-17500
sg22
I0
sg23
I0
sg24
I17500
ssS'GOLD JOSEPH'
p157
(dp158
g3
I272880
sg4
g27
sg5
I0
sg6
I2146973
sg7
I0
sg8
I750000
sg9
S'joe.gold@enron.com'
p159
sg11
I0
sg12
I877611
sg13
g27
sg14
I304805
sg15
I436515
sg16
g27
sg17
I819288
sg18
g27
sg19
g27
sg20
I0
sg21
I0
sg22
I0
sg23
I441096
sg24
I0
ssS'BANNANTINE JAMES M'
p160
(dp161
g3
I477
sg4
I566
sg5
I0
sg6
I916197
sg7
I0
sg8
I0
sg9
S'james.bannantine@enron.com'
p162
sg11
I-560222
sg12
I5243487
sg13
I465
sg14
I0
sg15
I4046157
sg16
I29
sg17
I864523
sg18
I39
sg19
I0
sg20
I0
sg21
I-5104
sg22
I56301
sg23
I1757552
sg24
I0
ssS'DUNCAN JOHN H'
p163
(dp164
g3
I0
sg4
g27
sg5
I0
sg6
I77492
sg7
I0
sg8
I0
sg9
g27
sg11
I0
sg12
I371750
sg13
g27
sg14
I0
sg15
I371750
sg16
g27
sg17
I0
sg18
g27
sg19
g27
sg20
I0
sg21
I-25000
sg22
I0
sg23
I0
sg24
I102492
ssS'SHAPIRO RICHARD S'
p165
(dp166
g3
I269076
sg4
I15149
sg5
I0
sg6
I1057548
sg7
I0
sg8
I650000
sg9
S'richard.shapiro@enron.com'
p167
sg11
I0
sg12
I987001
sg13
I4527
sg14
I0
sg15
I607837
sg16
I1215
sg17
I705
sg18
I74
sg19
I65
sg20
I0
sg21
I0
sg22
I137767
sg23
I379164
sg24
I0
ssS'SHERRIFF JOHN R'
p168
(dp169
g3
I428780
sg4
I3187
sg5
I0
sg6
I4335388
sg7
I0
sg8
I1500000
sg9
S'john.sherriff@enron.com'
p170
sg11
I0
sg12
I3128982
sg13
I2103
sg14
I554422
sg15
I1835558
sg16
I92
sg17
I1852186
sg18
I28
sg19
I23
sg20
I0
sg21
I0
sg22
I0
sg23
I1293424
sg24
I0
ssS'SHELBY REX'
p171
(dp172
g3
I211844
sg4
I225
sg5
I0
sg6
I2003885
sg7
I0
sg8
I200000
sg9
S'rex.shelby@enron.com'
p173
sg11
I0
sg12
I2493616
sg13
I91
sg14
I0
sg15
I1624396
sg16
I39
sg17
I1573324
sg18
I13
sg19
I14
sg20
I1
sg21
I-4167
sg22
I22884
sg23
I869220
sg24
I0
ssS'LEMAISTRE CHARLES'
p174
(dp175
g3
I0
sg4
g27
sg5
I0
sg6
I87492
sg7
I0
sg8
I0
sg9
g27
sg11
I0
sg12
I412878
sg13
g27
sg14
I0
sg15
I412878
sg16
g27
sg17
I0
sg18
g27
sg19
g27
sg20
I0
sg21
I-25000
sg22
I0
sg23
I0
sg24
I112492
ssS'DEFFNER JOSEPH M'
p176
(dp177
g3
I206121
sg4
I714
sg5
I0
sg6
I1208649
sg7
I0
sg8
I600000
sg9
S'joseph.deffner@enron.com'
p178
sg11
I0
sg12
I159211
sg13
I552
sg14
I335349
sg15
I17378
sg16
I74
sg17
I25553
sg18
I115
sg19
I4
sg20
I0
sg21
I0
sg22
I41626
sg23
I141833
sg24
I0
ssS'KISHKILL JOSEPH G'
p179
(dp180
g3
I174246
sg4
g27
sg5
I0
sg6
I704896
sg7
I0
sg8
I0
sg9
S'joe.kishkill@enron.com'
p181
sg11
I0
sg12
I1034346
sg13
g27
sg14
I0
sg15
I0
sg16
g27
sg17
I465357
sg18
g27
sg19
g27
sg20
I0
sg21
I-51042
sg22
I116335
sg23
I1034346
sg24
I0
ssS'WHALLEY LAWRENCE G'
p182
(dp183
g3
I510364
sg4
I6019
sg5
I0
sg6
I4677574
sg7
I0
sg8
I3000000
sg9
S'greg.whalley@enron.com'
p184
sg11
I0
sg12
I6079137
sg13
I3920
sg14
I808346
sg15
I3282960
sg16
I556
sg17
I301026
sg18
I186
sg19
I24
sg20
I0
sg21
I0
sg22
I57838
sg23
I2796177
sg24
I0
ssS'MCCARTY DANNY J'
p185
(dp186
g3
I0
sg4
I1433
sg5
I0
sg6
I0
sg7
I0
sg8
I0
sg9
S'danny.mccarty@enron.com'
p187
sg11
I0
sg12
I758931
sg13
I508
sg14
I0
sg15
I664375
sg16
I215
sg17
I0
sg18
I25
sg19
I2
sg20
I0
sg21
I0
sg22
I0
sg23
I94556
sg24
I0
ssS'MCCONNELL MICHAEL S'
p188
(dp189
g3
I365038
sg4
I3329
sg5
I0
sg6
I2101364
sg7
I0
sg8
I1100000
sg9
S'mike.mcconnell@enron.com'
p190
sg11
I0
sg12
I3101279
sg13
I2189
sg14
I554422
sg15
I1623010
sg16
I2742
sg17
I540
sg18
I92
sg19
I194
sg20
I0
sg21
I0
sg22
I81364
sg23
I1478269
sg24
I0
ssS'DELAINEY DAVID W'
p191
(dp192
g3
I365163
sg4
I3093
sg5
I0
sg6
I4747979
sg7
I0
sg8
I3000000
sg9
S'david.delainey@enron.com'
p193
sg11
I0
sg12
I3614261
sg13
I2097
sg14
I1294981
sg15
I2291113
sg16
I3069
sg17
I1661
sg18
I66
sg19
I609
sg20
I1
sg21
I0
sg22
I86174
sg23
I1323148
sg24
I0
ssS'SULLIVAN-SHAKLOVITZ COLLEEN'
p194
(dp195
g3
I162779
sg4
g27
sg5
I181993
sg6
I999356
sg7
I0
sg8
I100000
sg9
g27
sg11
I0
sg12
I1362375
sg13
g27
sg14
I554422
sg15
I1362375
sg16
g27
sg17
I162
sg18
g27
sg19
g27
sg20
I0
sg21
I0
sg22
I0
sg23
I0
sg24
I0
ssS'WROBEL BRUCE'
p196
(dp197
g3
I0
sg4
g27
sg5
I0
sg6
I0
sg7
I0
sg8
I0
sg9
g27
sg11
I0
sg12
I139130
sg13
g27
sg14
I0
sg15
I139130
sg16
g27
sg17
I0
sg18
g27
sg19
g27
sg20
I0
sg21
I0
sg22
I0
sg23
I0
sg24
I0
ssS'LINDHOLM TOD A'
p198
(dp199
g3
I236457
sg4
g27
sg5
I204075
sg6
I875889
sg7
I0
sg8
I200000
sg9
S'tod.lindholm@enron.com'
p200
sg11
I0
sg12
I3064208
sg13
g27
sg14
I175000
sg15
I2549361
sg16
g27
sg17
I2630
sg18
g27
sg19
g27
sg20
I0
sg21
I0
sg22
I57727
sg23
I514847
sg24
I0
ssS'MEYER JEROME J'
p201
(dp202
g3
I0
sg4
g27
sg5
I0
sg6
I2151
sg7
I0
sg8
I0
sg9
g27
sg11
I0
sg12
I0
sg13
g27
sg14
I0
sg15
I0
sg16
g27
sg17
I0
sg18
g27
sg19
g27
sg20
I0
sg21
I-38346
sg22
I2151
sg23
I0
sg24
I38346
ssS'LAY KENNETH L'
p203
(dp204
g3
I1072321
sg4
I4273
sg5
I202911
sg6
I103559793
sg7
I81525000
sg8
I7000000
sg9
S'kenneth.lay@enron.com'
p205
sg11
I0
sg12
I49110078
sg13
I2411
sg14
I3600000
sg15
I34348384
sg16
I36
sg17
I10359729
sg18
I123
sg19
I16
sg20
I1
sg21
I-300000
sg22
I99832
sg23
I14761694
sg24
I0
ssS'BUTTS ROBERT H'
p206
(dp207
g3
I261516
sg4
g27
sg5
I0
sg6
I1271582
sg7
I0
sg8
I750000
sg9
S'bob.butts@enron.com'
p208
sg11
I0
sg12
I417619
sg13
g27
sg14
I175000
sg15
I0
sg16
g27
sg17
I150656
sg18
g27
sg19
g27
sg20
I0
sg21
I-75000
sg22
I9410
sg23
I417619
sg24
I0
ssS'OLSON CINDY K'
p209
(dp210
g3
I329078
sg4
I1184
sg5
I77716
sg6
I1321557
sg7
I0
sg8
I750000
sg9
S'cindy.olson@enron.com'
p211
sg11
I0
sg12
I2606763
sg13
I856
sg14
I100000
sg15
I1637034
sg16
I52
sg17
I972
sg18
I20
sg19
I15
sg20
I0
sg21
I0
sg22
I63791
sg23
I969729
sg24
I0
ssS'MCDONALD REBECCA'
p212
(dp213
g3
I0
sg4
I894
sg5
I0
sg6
I0
sg7
I0
sg8
I0
sg9
S'rebecca.mcdonald@enron.com'
p214
sg11
I0
sg12
I1691366
sg13
I720
sg14
I0
sg15
I757301
sg16
I13
sg17
I0
sg18
I54
sg19
I1
sg20
I0
sg21
I0
sg22
I0
sg23
I934065
sg24
I0
ssS'CUMBERLAND MICHAEL S'
p215
(dp216
g3
I184899
sg4
g27
sg5
I0
sg6
I807956
sg7
I0
sg8
I325000
sg9
g27
sg11
I0
sg12
I207940
sg13
g27
sg14
I275000
sg15
I0
sg16
g27
sg17
I713
sg18
g27
sg19
g27
sg20
I0
sg21
I0
sg22
I22344
sg23
I207940
sg24
I0
ssS'GAHN ROBERT S'
p217
(dp218
g3
I192008
sg4
g27
sg5
I73122
sg6
I900585
sg7
I0
sg8
I509870
sg9
g27
sg11
I0
sg12
I318607
sg13
g27
sg14
I0
sg15
I83237
sg16
g27
sg17
I76547
sg18
g27
sg19
g27
sg20
I0
sg21
I-1042
sg22
I50080
sg23
I235370
sg24
I0
ssS'MCCLELLAN GEORGE'
p219
(dp220
g3
I263413
sg4
I1744
sg5
I0
sg6
I1318763
sg7
I0
sg8
I900000
sg9
S'george.mcclellan@enron.com'
p221
sg11
I0
sg12
I947861
sg13
I1469
sg14
I0
sg15
I506765
sg16
I49
sg17
I51587
sg18
I52
sg19
I0
sg20
I0
sg21
I-125000
sg22
I228763
sg23
I441096
sg24
I0
ssS'HERMANN ROBERT J'
p222
(dp223
g3
I262663
sg4
g27
sg5
I0
sg6
I1297461
sg7
I0
sg8
I700000
sg9
S'robert.hermann@enron.com'
p224
sg11
I0
sg12
I668132
sg13
g27
sg14
I150000
sg15
I187500
sg16
g27
sg17
I416441
sg18
g27
sg19
g27
sg20
I0
sg21
I-280000
sg22
I48357
sg23
I480632
sg24
I0
ssS'SCRIMSHAW MATTHEW'
p225
(dp226
g3
I0
sg4
g27
sg5
I0
sg6
I0
sg7
I0
sg8
I0
sg9
S'matthew.scrimshaw@enron.com'
p227
sg11
I0
sg12
I759557
sg13
g27
sg14
I0
sg15
I759557
sg16
g27
sg17
I0
sg18
g27
sg19
g27
sg20
I0
sg21
I0
sg22
I0
sg23
I0
sg24
I0
ssS'GATHMANN WILLIAM D'
p228
(dp229
g3
I0
sg4
g27
sg5
I0
sg6
I0
sg7
I0
sg8
I0
sg9
g27
sg11
I-72419
sg12
I1945360
sg13
g27
sg14
I0
sg15
I1753766
sg16
g27
sg17
I0
sg18
g27
sg19
g27
sg20
I0
sg21
I0
sg22
I0
sg23
I264013
sg24
I0
ssS'HAEDICKE MARK E'
p230
(dp231
g3
I374125
sg4
I4009
sg5
I2157527
sg6
I3859065
sg7
I0
sg8
I1150000
sg9
S'mark.haedicke@enron.com'
p232
sg11
I-329825
sg12
I803094
sg13
I1847
sg14
I983346
sg15
I608750
sg16
I1941
sg17
I52382
sg18
I180
sg19
I61
sg20
I0
sg21
I-934484
sg22
I76169
sg23
I524169
sg24
I0
ssS'BOWEN JR RAYMOND M'
p233
(dp234
g3
I278601
sg4
I1858
sg5
I0
sg6
I2669589
sg7
I0
sg8
I1350000
sg9
S'raymond.bowen@enron.com'
p235
sg11
I0
sg12
I252055
sg13
I1593
sg14
I974293
sg15
I0
sg16
I27
sg17
I1621
sg18
I140
sg19
I15
sg20
I1
sg21
I-833
sg22
I65907
sg23
I252055
sg24
I0
ssS'GILLIS JOHN'
p236
(dp237
g3
I0
sg4
g27
sg5
I0
sg6
I0
sg7
I0
sg8
I0
sg9
g27
sg11
I0
sg12
I85641
sg13
g27
sg14
I0
sg15
I9803
sg16
g27
sg17
I0
sg18
g27
sg19
g27
sg20
I0
sg21
I0
sg22
I0
sg23
I75838
sg24
I0
ssS'FITZGERALD JAY L'
p238
(dp239
g3
I199157
sg4
I936
sg5
I0
sg6
I1414857
sg7
I0
sg8
I350000
sg9
S'jay.fitzgerald@enron.com'
p240
sg11
I0
sg12
I1621236
sg13
I723
sg14
I556416
sg15
I664461
sg16
I16
sg17
I285414
sg18
I1
sg19
I8
sg20
I0
sg21
I0
sg22
I23870
sg23
I956775
sg24
I0
ssS'MORAN MICHAEL P'
p241
(dp242
g3
I0
sg4
I672
sg5
I0
sg6
I0
sg7
I0
sg8
I0
sg9
S'michael.moran@enron.com'
p243
sg11
I0
sg12
I221141
sg13
I127
sg14
I0
sg15
I59539
sg16
I19
sg17
I0
sg18
I0
sg19
I0
sg20
I0
sg21
I0
sg22
I0
sg23
I161602
sg24
I0
ssS'REDMOND BRIAN L'
p244
(dp245
g3
I96840
sg4
I1671
sg5
I0
sg6
I111529
sg7
I0
sg8
I0
sg9
S'brian.redmond@enron.com'
p246
sg11
I0
sg12
I7890324
sg13
I1063
sg14
I0
sg15
I7509039
sg16
I221
sg17
I0
sg18
I204
sg19
I49
sg20
I0
sg21
I0
sg22
I14689
sg23
I381285
sg24
I0
ssS'BAZELIDES PHILIP J'
p247
(dp248
g3
I80818
sg4
g27
sg5
I684694
sg6
I860136
sg7
I0
sg8
I0
sg9
g27
sg11
I0
sg12
I1599641
sg13
g27
sg14
I93750
sg15
I1599641
sg16
g27
sg17
I874
sg18
g27
sg19
g27
sg20
I0
sg21
I0
sg22
I0
sg23
I0
sg24
I0
ssS'BELDEN TIMOTHY N'
p249
(dp250
g3
I213999
sg4
I7991
sg5
I2144013
sg6
I5501630
sg7
I0
sg8
I5249999
sg9
S'tim.belden@enron.com'
p251
sg11
I0
sg12
I1110705
sg13
I5521
sg14
I0
sg15
I953136
sg16
I484
sg17
I210698
sg18
I228
sg19
I108
sg20
I1
sg21
I-2334434
sg22
I17355
sg23
I157569
sg24
I0
ssS'DURAN WILLIAM D'
p252
(dp253
g3
I210692
sg4
I904
sg5
I0
sg6
I2093263
sg7
I0
sg8
I750000
sg9
S'w.duran@enron.com'
p254
sg11
I0
sg12
I1640910
sg13
I599
sg14
I1105218
sg15
I1451869
sg16
I12
sg17
I1568
sg18
I106
sg19
I3
sg20
I0
sg21
I0
sg22
I25785
sg23
I189041
sg24
I0
ssS'THORN TERENCE H'
p255
(dp256
g3
I222093
sg4
I266
sg5
I16586
sg6
I911453
sg7
I0
sg8
I0
sg9
S'terence.thorn@enron.com'
p257
sg11
I0
sg12
I4817796
sg13
I73
sg14
I200000
sg15
I4452476
sg16
I41
sg17
I426629
sg18
I0
sg19
I0
sg20
I0
sg21
I0
sg22
I46145
sg23
I365320
sg24
I0
ssS'FASTOW ANDREW S'
p258
(dp259
g3
I440698
sg4
g27
sg5
I0
sg6
I2424083
sg7
I0
sg8
I1300000
sg9
S'andrew.fastow@enron.com'
p260
sg11
I0
sg12
I1794412
sg13
g27
sg14
I1736055
sg15
I0
sg16
g27
sg17
I277464
sg18
g27
sg19
g27
sg20
I1
sg21
I-1386055
sg22
I55921
sg23
I1794412
sg24
I0
ssS'FOY JOE'
p261
(dp262
g3
I0
sg4
I57
sg5
I181755
sg6
I181755
sg7
I0
sg8
I0
sg9
S'tracy.foy@enron.com'
p263
sg11
I0
sg12
I343434
sg13
I2
sg14
I0
sg15
I343434
sg16
I13
sg17
I0
sg18
I0
sg19
I0
sg20
I0
sg21
I0
sg22
I0
sg23
I0
sg24
I0
ssS'CALGER CHRISTOPHER F'
p264
(dp265
g3
I240189
sg4
I2598
sg5
I0
sg6
I1639297
sg7
I0
sg8
I1250000
sg9
S'christopher.calger@enron.com'
p266
sg11
I0
sg12
I126027
sg13
I2188
sg14
I375304
sg15
I0
sg16
I144
sg17
I486
sg18
I199
sg19
I25
sg20
I1
sg21
I-262500
sg22
I35818
sg23
I126027
sg24
I0
ssS'RICE KENNETH D'
p267
(dp268
g3
I420636
sg4
I905
sg5
I0
sg6
I505050
sg7
I0
sg8
I1750000
sg9
S'ken.rice@enron.com'
p269
sg11
I0
sg12
I22542539
sg13
I864
sg14
I1617011
sg15
I19794175
sg16
I18
sg17
I174839
sg18
I42
sg19
I4
sg20
I1
sg21
I-3504386
sg22
I46950
sg23
I2748364
sg24
I0
ssS'KAMINSKI WINCENTY J'
p270
(dp271
g3
I275101
sg4
I4607
sg5
I0
sg6
I1086821
sg7
I0
sg8
I400000
sg9
S'vince.kaminski@enron.com'
p272
sg11
I0
sg12
I976037
sg13
I583
sg14
I323466
sg15
I850010
sg16
I14368
sg17
I4669
sg18
I41
sg19
I171
sg20
I0
sg21
I0
sg22
I83585
sg23
I126027
sg24
I0
ssS'LOCKHART EUGENE E'
p273
(dp274
g3
I0
sg4
g27
sg5
I0
sg6
I0
sg7
I0
sg8
I0
sg9
g27
sg11
I0
sg12
I0
sg13
g27
sg14
I0
sg15
I0
sg16
g27
sg17
I0
sg18
g27
sg19
g27
sg20
I0
sg21
I0
sg22
I0
sg23
I0
sg24
I0
ssS'COX DAVID'
p275
(dp276
g3
I314288
sg4
I102
sg5
I0
sg6
I1101393
sg7
I0
sg8
I800000
sg9
S'chip.cox@enron.com'
p277
sg11
I0
sg12
I495633
sg13
I71
sg14
I0
sg15
I117551
sg16
I33
sg17
I494
sg18
I0
sg19
I4
sg20
I0
sg21
I-41250
sg22
I27861
sg23
I378082
sg24
I0
ssS'OVERDYKE JR JERE C'
p278
(dp279
g3
I94941
sg4
g27
sg5
I0
sg6
I249787
sg7
I0
sg8
I0
sg9
S'jere.overdyke@enron.com'
p280
sg11
I0
sg12
I7307594
sg13
g27
sg14
I135836
sg15
I5266578
sg16
g27
sg17
I176
sg18
g27
sg19
g27
sg20
I0
sg21
I0
sg22
I18834
sg23
I2041016
sg24
I0
ssS'PEREIRA PAULO V. FERRAZ'
p281
(dp282
g3
I0
sg4
g27
sg5
I0
sg6
I27942
sg7
I0
sg8
I0
sg9
g27
sg11
I0
sg12
I0
sg13
g27
sg14
I0
sg15
I0
sg16
g27
sg17
I0
sg18
g27
sg19
g27
sg20
I0
sg21
I-101250
sg22
I27942
sg23
I0
sg24
I101250
ssS'STABLER FRANK'
p283
(dp284
g3
I239502
sg4
g27
sg5
I0
sg6
I1112087
sg7
I0
sg8
I500000
sg9
S'frank.stabler@enron.com'
p285
sg11
I0
sg12
I511734
sg13
g27
sg14
I0
sg15
I0
sg16
g27
sg17
I356071
sg18
g27
sg19
g27
sg20
I0
sg21
I0
sg22
I16514
sg23
I511734
sg24
I0
ssS'SKILLING JEFFREY K'
p286
(dp287
g3
I1111258
sg4
I3627
sg5
I0
sg6
I8682716
sg7
I0
sg8
I5600000
sg9
S'jeff.skilling@enron.com'
p288
sg11
I0
sg12
I26093672
sg13
I2042
sg14
I1920000
sg15
I19250000
sg16
I108
sg17
I22122
sg18
I88
sg19
I30
sg20
I1
sg21
I0
sg22
I29336
sg23
I6843672
sg24
I0
ssS'BLAKE JR. NORMAN P'
p289
(dp290
g3
I0
sg4
g27
sg5
I0
sg6
I1279
sg7
I0
sg8
I0
sg9
g27
sg11
I0
sg12
I0
sg13
g27
sg14
I0
sg15
I0
sg16
g27
sg17
I0
sg18
g27
sg19
g27
sg20
I0
sg21
I-113784
sg22
I1279
sg23
I0
sg24
I113784
ssS'SHERRICK JEFFREY B'
p291
(dp292
g3
I0
sg4
I613
sg5
I0
sg6
I0
sg7
I0
sg8
I0
sg9
S'jeffrey.sherrick@enron.com'
p293
sg11
I0
sg12
I1832468
sg13
I583
sg14
I0
sg15
I1426469
sg16
I25
sg17
I0
sg18
I39
sg19
I18
sg20
I0
sg21
I0
sg22
I0
sg23
I405999
sg24
I0
ssS'PRENTICE JAMES'
p294
(dp295
g3
I0
sg4
g27
sg5
I564348
sg6
I564348
sg7
I0
sg8
I0
sg9
S'james.prentice@enron.com'
p296
sg11
I0
sg12
I1095040
sg13
g27
sg14
I0
sg15
I886231
sg16
g27
sg17
I0
sg18
g27
sg19
g27
sg20
I0
sg21
I0
sg22
I0
sg23
I208809
sg24
I0
ssS'GRAY RODNEY'
p297
(dp298
g3
I6615
sg4
g27
sg5
I93585
sg6
I1146658
sg7
I0
sg8
I0
sg9
g27
sg11
I0
sg12
I0
sg13
g27
sg14
I365625
sg15
I0
sg16
g27
sg17
I680833
sg18
g27
sg19
g27
sg20
I0
sg21
I0
sg22
I0
sg23
I0
sg24
I0
ssS'PICKERING MARK R'
p299
(dp300
g3
I655037
sg4
I898
sg5
I0
sg6
I1386690
sg7
I400000
sg8
I300000
sg9
S'mark.pickering@enron.com'
p301
sg11
I0
sg12
I28798
sg13
I728
sg14
I0
sg15
I28798
sg16
I67
sg17
I0
sg18
I7
sg19
I0
sg20
I0
sg21
I0
sg22
I31653
sg23
I0
sg24
I0
ssS'THE TRAVEL AGENCY IN THE PARK'
p302
(dp303
g3
I0
sg4
g27
sg5
I0
sg6
I362096
sg7
I0
sg8
I0
sg9
g27
sg11
I0
sg12
I0
sg13
g27
sg14
I0
sg15
I0
sg16
g27
sg17
I362096
sg18
g27
sg19
g27
sg20
I0
sg21
I0
sg22
I0
sg23
I0
sg24
I0
ssS'NOLES JAMES L'
p304
(dp305
g3
I0
sg4
g27
sg5
I774401
sg6
I774401
sg7
I0
sg8
I0
sg9
g27
sg11
I-94556
sg12
I368705
sg13
g27
sg14
I0
sg15
I0
sg16
g27
sg17
I0
sg18
g27
sg19
g27
sg20
I0
sg21
I0
sg22
I0
sg23
I463261
sg24
I0
ssS'KEAN STEVEN J'
p306
(dp307
g3
I404338
sg4
I12754
sg5
I0
sg6
I1747522
sg7
I0
sg8
I1000000
sg9
S'steven.kean@enron.com'
p308
sg11
I0
sg12
I6153642
sg13
I3639
sg14
I300000
sg15
I2022048
sg16
I6759
sg17
I1231
sg18
I140
sg19
I387
sg20
I0
sg21
I0
sg22
I41953
sg23
I4131594
sg24
I0
ssS'FOWLER PEGGY'
p309
(dp310
g3
I0
sg4
I517
sg5
I0
sg6
I0
sg7
I0
sg8
I0
sg9
S'kulvinder.fowler@enron.com'
p311
sg11
I0
sg12
I1884748
sg13
I10
sg14
I0
sg15
I1324578
sg16
I36
sg17
I0
sg18
I0
sg19
I0
sg20
I0
sg21
I0
sg22
I0
sg23
I560170
sg24
I0
ssS'WASAFF GEORGE'
p312
(dp313
g3
I259996
sg4
I400
sg5
I831299
sg6
I1034395
sg7
I0
sg8
I325000
sg9
S'george.wasaff@enron.com'
p314
sg11
I0
sg12
I2056427
sg13
I337
sg14
I200000
sg15
I1668260
sg16
I30
sg17
I1425
sg18
I22
sg19
I7
sg20
I0
sg21
I-583325
sg22
I0
sg23
I388167
sg24
I0
ssS'WHITE JR THOMAS E'
p315
(dp316
g3
I317543
sg4
g27
sg5
I0
sg6
I1934359
sg7
I0
sg8
I450000
sg9
S'thomas.white@enron.com'
p317
sg11
I0
sg12
I15144123
sg13
g27
sg14
I0
sg15
I1297049
sg16
g27
sg17
I1085463
sg18
g27
sg19
g27
sg20
I0
sg21
I0
sg22
I81353
sg23
I13847074
sg24
I0
ssS'CHRISTODOULOU DIOMEDES'
p318
(dp319
g3
I0
sg4
g27
sg5
I0
sg6
I0
sg7
I0
sg8
I0
sg9
S'diomedes.christodoulou@enron.com'
p320
sg11
I0
sg12
I6077885
sg13
g27
sg14
I0
sg15
I5127155
sg16
g27
sg17
I0
sg18
g27
sg19
g27
sg20
I0
sg21
I0
sg22
I0
sg23
I950730
sg24
I0
ssS'ALLEN PHILLIP K'
p321
(dp322
g3
I201955
sg4
I2902
sg5
I2869717
sg6
I4484442
sg7
I0
sg8
I4175000
sg9
S'phillip.allen@enron.com'
p323
sg11
I-126027
sg12
I1729541
sg13
I1407
sg14
I304805
sg15
I1729541
sg16
I2195
sg17
I152
sg18
I47
sg19
I65
sg20
I0
sg21
I-3081055
sg22
I13868
sg23
I126027
sg24
I0
ssS'SHARP VICTORIA T'
p324
(dp325
g3
I248146
sg4
I3136
sg5
I187469
sg6
I1576511
sg7
I0
sg8
I600000
sg9
S'vicki.sharp@enron.com'
p326
sg11
I0
sg12
I494136
sg13
I2477
sg14
I422158
sg15
I281073
sg16
I136
sg17
I2401
sg18
I24
sg19
I6
sg20
I0
sg21
I0
sg22
I116337
sg23
I213063
sg24
I0
ssS'JAEDICKE ROBERT'
p327
(dp328
g3
I0
sg4
g27
sg5
I0
sg6
I83750
sg7
I0
sg8
I0
sg9
g27
sg11
I-44093
sg12
I431750
sg13
g27
sg14
I0
sg15
I431750
sg16
g27
sg17
I0
sg18
g27
sg19
g27
sg20
I0
sg21
I-25000
sg22
I0
sg23
I44093
sg24
I108750
ssS'WINOKUR JR. HERBERT S'
p329
(dp330
g3
I0
sg4
g27
sg5
I0
sg6
I84992
sg7
I0
sg8
I0
sg9
g27
sg11
I0
sg12
I0
sg13
g27
sg14
I0
sg15
I0
sg16
g27
sg17
I0
sg18
g27
sg19
g27
sg20
I0
sg21
I-25000
sg22
I1413
sg23
I0
sg24
I108579
ssS'BROWN MICHAEL'
p331
(dp332
g3
I0
sg4
I1486
sg5
I0
sg6
I49288
sg7
I0
sg8
I0
sg9
S'michael.brown@enron.com'
p333
sg11
I0
sg12
I0
sg13
I761
sg14
I0
sg15
I0
sg16
I41
sg17
I0
sg18
I13
sg19
I1
sg20
I0
sg21
I0
sg22
I49288
sg23
I0
sg24
I0
ssS'BADUM JAMES P'
p334
(dp335
g3
I0
sg4
g27
sg5
I178980
sg6
I182466
sg7
I0
sg8
I0
sg9
g27
sg11
I0
sg12
I257817
sg13
g27
sg14
I0
sg15
I257817
sg16
g27
sg17
I0
sg18
g27
sg19
g27
sg20
I0
sg21
I0
sg22
I3486
sg23
I0
sg24
I0
ssS'HUGHES JAMES A'
p336
(dp337
g3
I0
sg4
I719
sg5
I0
sg6
I0
sg7
I0
sg8
I0
sg9
S'james.hughes@enron.com'
p338
sg11
I0
sg12
I1118394
sg13
I589
sg14
I0
sg15
I754966
sg16
I34
sg17
I0
sg18
I35
sg19
I5
sg20
I0
sg21
I0
sg22
I0
sg23
I363428
sg24
I0
ssS'REYNOLDS LAWRENCE'
p339
(dp340
g3
I76399
sg4
g27
sg5
I51365
sg6
I394475
sg7
I0
sg8
I100000
sg9
g27
sg11
I-140264
sg12
I4221891
sg13
g27
sg14
I156250
sg15
I4160672
sg16
g27
sg17
I202052
sg18
g27
sg19
g27
sg20
I0
sg21
I-200000
sg22
I8409
sg23
I201483
sg24
I0
ssS'DIMICHELE RICHARD G'
p341
(dp342
g3
I262788
sg4
g27
sg5
I0
sg6
I2368151
sg7
I0
sg8
I1000000
sg9
S'richard.dimichele@enron.com'
p343
sg11
I0
sg12
I8317782
sg13
g27
sg14
I694862
sg15
I8191755
sg16
g27
sg17
I374689
sg18
g27
sg19
g27
sg20
I0
sg21
I0
sg22
I35812
sg23
I126027
sg24
I0
ssS'BHATNAGAR SANJAY'
p344
(dp345
g3
I0
sg4
I523
sg5
I0
sg6
I15456290
sg7
I0
sg8
I0
sg9
S'sanjay.bhatnagar@enron.com'
p346
sg11
I15456290
sg12
I0
sg13
I463
sg14
I0
sg15
I2604490
sg16
I29
sg17
I137864
sg18
I0
sg19
I1
sg20
I0
sg21
I0
sg22
I0
sg23
I-2604490
sg24
I137864
ssS'CARTER REBECCA C'
p347
(dp348
g3
I261809
sg4
I312
sg5
I0
sg6
I477557
sg7
I0
sg8
I300000
sg9
S'rebecca.carter@enron.com'
p349
sg11
I-307301
sg12
I0
sg13
I196
sg14
I75000
sg15
I0
sg16
I15
sg17
I540
sg18
I29
sg19
I7
sg20
I0
sg21
I-159792
sg22
I0
sg23
I307301
sg24
I0
ssS'BUCHANAN HAROLD G'
p350
(dp351
g3
I248017
sg4
I1088
sg5
I0
sg6
I1054637
sg7
I0
sg8
I500000
sg9
S'john.buchanan@enron.com'
p352
sg11
I0
sg12
I1014505
sg13
I23
sg14
I304805
sg15
I825464
sg16
I125
sg17
I1215
sg18
I0
sg19
I0
sg20
I0
sg21
I0
sg22
I600
sg23
I189041
sg24
I0
ssS'YEAP SOON'
p353
(dp354
g3
I0
sg4
g27
sg5
I0
sg6
I55097
sg7
I0
sg8
I0
sg9
g27
sg11
I0
sg12
I192758
sg13
g27
sg14
I0
sg15
I192758
sg16
g27
sg17
I0
sg18
g27
sg19
g27
sg20
I0
sg21
I0
sg22
I55097
sg23
I0
sg24
I0
ssS'MURRAY JULIA H'
p355
(dp356
g3
I229284
sg4
I2192
sg5
I0
sg6
I812194
sg7
I0
sg8
I400000
sg9
S'julia.murray@enron.com'
p357
sg11
I0
sg12
I597461
sg13
I395
sg14
I125000
sg15
I400478
sg16
I45
sg17
I330
sg18
I11
sg19
I2
sg20
I0
sg21
I0
sg22
I57580
sg23
I196983
sg24
I0
ssS'GARLAND C KEVIN'
p358
(dp359
g3
I231946
sg4
I209
sg5
I0
sg6
I1566469
sg7
I0
sg8
I850000
sg9
S'kevin.garland@enron.com'
p360
sg11
I0
sg12
I896153
sg13
I178
sg14
I375304
sg15
I636246
sg16
I44
sg17
I60814
sg18
I10
sg19
I27
sg20
I0
sg21
I0
sg22
I48405
sg23
I259907
sg24
I0
ssS'DODSON KEITH'
p361
(dp362
g3
I221003
sg4
I176
sg5
I0
sg6
I319941
sg7
I0
sg8
I70000
sg9
S'keith.dodson@enron.com'
p363
sg11
I0
sg12
I0
sg13
I114
sg14
I0
sg15
I0
sg16
I14
sg17
I774
sg18
I10
sg19
I3
sg20
I0
sg21
I0
sg22
I28164
sg23
I0
sg24
I0
ssS'YEAGER F SCOTT'
p364
(dp365
g3
I158403
sg4
g27
sg5
I0
sg6
I360300
sg7
I0
sg8
I0
sg9
S'scott.yeager@enron.com'
p366
sg11
I0
sg12
I11884758
sg13
g27
sg14
I0
sg15
I8308552
sg16
g27
sg17
I147950
sg18
g27
sg19
g27
sg20
I1
sg21
I0
sg22
I53947
sg23
I3576206
sg24
I0
ssS'HIRKO JOSEPH'
p367
(dp368
g3
I0
sg4
g27
sg5
I10259
sg6
I91093
sg7
I0
sg8
I0
sg9
S'joe.hirko@enron.com'
p369
sg11
I0
sg12
I30766064
sg13
g27
sg14
I0
sg15
I30766064
sg16
g27
sg17
I2856
sg18
g27
sg19
g27
sg20
I1
sg21
I0
sg22
I77978
sg23
I0
sg24
I0
ssS'DIETRICH JANET R'
p370
(dp371
g3
I250100
sg4
I2572
sg5
I0
sg6
I1410464
sg7
I0
sg8
I600000
sg9
S'janet.dietrich@enron.com'
p372
sg11
I0
sg12
I1865087
sg13
I1902
sg14
I556416
sg15
I1550019
sg16
I63
sg17
I473
sg18
I305
sg19
I14
sg20
I0
sg21
I0
sg22
I3475
sg23
I315068
sg24
I0
ssS'DERRICK JR. JAMES V'
p373
(dp374
g3
I492375
sg4
I2181
sg5
I0
sg6
I550981
sg7
I0
sg8
I800000
sg9
S'james.derrick@enron.com'
p375
sg11
I-1787380
sg12
I8831913
sg13
I1401
sg14
I484000
sg15
I8831913
sg16
I909
sg17
I7482
sg18
I64
sg19
I20
sg20
I0
sg21
I-1284000
sg22
I51124
sg23
I1787380
sg24
I0
ssS'FREVERT MARK A'
p376
(dp377
g3
I1060932
sg4
I3275
sg5
I6426990
sg6
I17252530
sg7
I2000000
sg8
I2000000
sg9
S'mark.frevert@enron.com'
p378
sg11
I0
sg12
I14622185
sg13
I2979
sg14
I1617011
sg15
I10433518
sg16
I21
sg17
I7427621
sg18
I242
sg19
I6
sg20
I0
sg21
I-3367011
sg22
I86987
sg23
I4188667
sg24
I0
ssS'PAI LOU L'
p379
(dp380
g3
I261879
sg4
g27
sg5
I0
sg6
I3123383
sg7
I0
sg8
I1000000
sg9
S'lou.pai@enron.com'
p381
sg11
I0
sg12
I23817930
sg13
g27
sg14
I0
sg15
I15364167
sg16
g27
sg17
I1829457
sg18
g27
sg19
g27
sg20
I0
sg21
I0
sg22
I32047
sg23
I8453763
sg24
I0
ssS'BAY FRANKLIN R'
p382
(dp383
g3
I239671
sg4
g27
sg5
I260455
sg6
I827696
sg7
I0
sg8
I400000
sg9
S'frank.bay@enron.com'
p384
sg11
I-82782
sg12
I63014
sg13
g27
sg14
I0
sg15
I0
sg16
g27
sg17
I69
sg18
g27
sg19
g27
sg20
I0
sg21
I-201641
sg22
I129142
sg23
I145796
sg24
I0
ssS'HAYSLETT RODERICK J'
p385
(dp386
g3
I0
sg4
I2649
sg5
I0
sg6
I0
sg7
I0
sg8
I0
sg9
S'rod.hayslett@enron.com'
p387
sg11
I0
sg12
I346663
sg13
I571
sg14
I0
sg15
I0
sg16
I1061
sg17
I0
sg18
I35
sg19
I38
sg20
I0
sg21
I0
sg22
I0
sg23
I346663
sg24
I0
ssS'FUGH JOHN L'
p388
(dp389
g3
I0
sg4
g27
sg5
I50591
sg6
I50591
sg7
I0
sg8
I0
sg9
g27
sg11
I0
sg12
I176378
sg13
g27
sg14
I0
sg15
I176378
sg16
g27
sg17
I0
sg18
g27
sg19
g27
sg20
I0
sg21
I0
sg22
I0
sg23
I0
sg24
I0
ssS'FALLON JAMES B'
p390
(dp391
g3
I304588
sg4
I1755
sg5
I0
sg6
I3676340
sg7
I0
sg8
I2500000
sg9
S'jim.fallon@enron.com'
p392
sg11
I0
sg12
I2332399
sg13
I1604
sg14
I374347
sg15
I940257
sg16
I75
sg17
I401481
sg18
I42
sg19
I37
sg20
I0
sg21
I0
sg22
I95924
sg23
I1392142
sg24
I0
ssS'KOENIG MARK E'
p393
(dp394
g3
I309946
sg4
I2374
sg5
I0
sg6
I1587421
sg7
I0
sg8
I700000
sg9
S'mark.koenig@enron.com'
p395
sg11
I0
sg12
I1920055
sg13
I2271
sg14
I300000
sg15
I671737
sg16
I61
sg17
I150458
sg18
I53
sg19
I15
sg20
I1
sg21
I0
sg22
I127017
sg23
I1248318
sg24
I0
ssS'SAVAGE FRANK'
p396
(dp397
g3
I0
sg4
g27
sg5
I0
sg6
I3750
sg7
I0
sg8
I0
sg9
g27
sg11
I0
sg12
I0
sg13
g27
sg14
I0
sg15
I0
sg16
g27
sg17
I0
sg18
g27
sg19
g27
sg20
I0
sg21
I-121284
sg22
I0
sg23
I0
sg24
I125034
ssS'IZZO LAWRENCE L'
p398
(dp399
g3
I85274
sg4
I496
sg5
I0
sg6
I1979596
sg7
I0
sg8
I0
sg9
S'larry.izzo@enron.com'
p400
sg11
I0
sg12
I5819980
sg13
I437
sg14
I312500
sg15
I2165172
sg16
I19
sg17
I1553729
sg18
I28
sg19
I5
sg20
I0
sg21
I0
sg22
I28093
sg23
I3654808
sg24
I0
ssS'TILNEY ELIZABETH A'
p401
(dp402
g3
I247338
sg4
I460
sg5
I0
sg6
I399393
sg7
I0
sg8
I300000
sg9
S'elizabeth.tilney@enron.com'
p403
sg11
I0
sg12
I1168042
sg13
I379
sg14
I275000
sg15
I591250
sg16
I19
sg17
I152055
sg18
I10
sg19
I11
sg20
I0
sg21
I-575000
sg22
I0
sg23
I576792
sg24
I0
ssS'MARTIN AMANDA K'
p404
(dp405
g3
I349487
sg4
I1522
sg5
I85430
sg6
I8407016
sg7
I0
sg8
I0
sg9
S'a..martin@enron.com'
p406
sg11
I0
sg12
I2070306
sg13
I477
sg14
I5145434
sg15
I2070306
sg16
I230
sg17
I2818454
sg18
I8
sg19
I0
sg20
I0
sg21
I0
sg22
I8211
sg23
I0
sg24
I0
ssS'BUY RICHARD B'
p407
(dp408
g3
I330546
sg4
I3523
sg5
I649584
sg6
I2355702
sg7
I0
sg8
I900000
sg9
S'rick.buy@enron.com'
p409
sg11
I0
sg12
I3444470
sg13
I2333
sg14
I769862
sg15
I2542813
sg16
I1053
sg17
I400572
sg18
I156
sg19
I71
sg20
I0
sg21
I-694862
sg22
I0
sg23
I901657
sg24
I0
ssS'GRAMM WENDY L'
p410
(dp411
g3
I0
sg4
g27
sg5
I0
sg6
I119292
sg7
I0
sg8
I0
sg9
g27
sg11
I0
sg12
I0
sg13
g27
sg14
I0
sg15
I0
sg16
g27
sg17
I0
sg18
g27
sg19
g27
sg20
I0
sg21
I0
sg22
I0
sg23
I0
sg24
I119292
ssS'CAUSEY RICHARD A'
p412
(dp413
g3
I415189
sg4
I1892
sg5
I0
sg6
I1868758
sg7
I0
sg8
I1000000
sg9
S'richard.causey@enron.com'
p414
sg11
I0
sg12
I2502063
sg13
I1585
sg14
I350000
sg15
I0
sg16
I49
sg17
I307895
sg18
I58
sg19
I12
sg20
I1
sg21
I-235000
sg22
I30674
sg23
I2502063
sg24
I0
ssS'TAYLOR MITCHELL S'
p415
(dp416
g3
I265214
sg4
I533
sg5
I227449
sg6
I1092663
sg7
I0
sg8
I600000
sg9
S'mitchell.taylor@enron.com'
p417
sg11
I0
sg12
I3745048
sg13
I300
sg14
I0
sg15
I3181250
sg16
I29
sg17
I0
sg18
I0
sg19
I0
sg20
I0
sg21
I0
sg22
I0
sg23
I563798
sg24
I0
ssS'DONAHUE JR JEFFREY M'
p418
(dp419
g3
I278601
sg4
I865
sg5
I0
sg6
I875760
sg7
I0
sg8
I800000
sg9
S'jeff.donahue@enron.com'
p420
sg11
I0
sg12
I1080988
sg13
I772
sg14
I0
sg15
I765920
sg16
I22
sg17
I891
sg18
I188
sg19
I11
sg20
I0
sg21
I-300000
sg22
I96268
sg23
I315068
sg24
I0
ssS'GLISAN JR BEN F'
p421
(dp422
g3
I274975
sg4
I873
sg5
I0
sg6
I1272284
sg7
I0
sg8
I600000
sg9
S'ben.glisan@enron.com'
p423
sg11
I0
sg12
I778546
sg13
I874
sg14
I71023
sg15
I384728
sg16
I16
sg17
I200308
sg18
I52
sg19
I6
sg20
I1
sg21
I0
sg22
I125978
sg23
I393818
sg24
I0
ss.