(dp0
S'METTS MARK'
p1
(dp2
S'to_messages'
p3
I807
sS'deferral_payments'
p4
I0
sS'expenses'
p5
I94299
sS'poi'
p6
I0
sS'long_term_incentive'
p7
I0
sS'email_address'
p8
S'mark.metts@enron.com'
p9
sS'from_poi_to_this_person'
p10
I38
sS'deferred_income'
p11
I0
sS'restricted_stock_deferred'
p12
I0
sS'shared_receipt_with_poi'
p13
I702
sS'loan_advances'
p14
I0
sS'from_messages'
p15
I29
sS'other'
p16
I1740
sS'director_fees'
p17
I0
sS'bonus'
p18
I600000
sS'email_features_miss'
p19
I0
sS'total_stock_value'
p20
I585062
sS'from_this_person_to_poi'
p21
I1
sS'restricted_stock'
p22
I585062
sS'poi_rate_from_messages'
p23
F1.3103448275862069
sS'salary'
p24
I365788
sS'total_payments'
p25
I1061827
sS'poi_rate_to_messages'
p26
F0.0012391573729863693
sS'exercised_stock_options'
p27
I0
ssS'BAXTER JOHN C'
p28
(dp29
g3
S'NaN'
p30
sg4
I1295738
sg5
I11200
sg6
I0
sg7
I1586055
sg8
g30
sg10
g30
sg11
I-1386055
sg12
I0
sg13
g30
sg14
I0
sg15
g30
sg16
I2660303
sg17
I0
sg18
I1200000
sg19
I1
sg20
I10623258
sg21
g30
sg22
I3942714
sg23
F0.0
sg24
I267102
sg25
I5634343
sg26
F0.0
sg27
I6680544
ssS'ELLIOTT STEVEN'
p31
(dp32
g3
g30
sg4
I0
sg5
I78552
sg6
I0
sg7
I0
sg8
S'steven.elliott@enron.com'
p33
sg10
g30
sg11
I-400729
sg12
I0
sg13
g30
sg14
I0
sg15
g30
sg16
I12961
sg17
I0
sg18
I350000
sg19
I1
sg20
I6678735
sg21
g30
sg22
I1788391
sg23
F0.0
sg24
I170941
sg25
I211725
sg26
F0.0
sg27
I4890344
ssS'CORDES WILLIAM R'
p34
(dp35
g3
I764
sg4
I0
sg5
I0
sg6
I0
sg7
I0
sg8
S'bill.cordes@enron.com'
p36
sg10
I10
sg11
I0
sg12
I0
sg13
I58
sg14
I0
sg15
I12
sg16
I0
sg17
I0
sg18
I0
sg19
I0
sg20
I1038185
sg21
I0
sg22
I386335
sg23
F0.8333333333333334
sg24
I0
sg25
I0
sg26
F0.0
sg27
I651850
ssS'HANNON KEVIN P'
p37
(dp38
g3
I1045
sg4
I0
sg5
I34039
sg6
I1
sg7
I1617011
sg8
S'kevin.hannon@enron.com'
p39
sg10
I32
sg11
I-3117011
sg12
I0
sg13
I1035
sg14
I0
sg15
I32
sg16
I11350
sg17
I0
sg18
I1500000
sg19
I0
sg20
I6391065
sg21
I21
sg22
I853064
sg23
F1.0
sg24
I243293
sg25
I288682
sg26
F0.020095693779904306
sg27
I5538001
ssS'MORDAUNT KRISTINA M'
p40
(dp41
g3
g30
sg4
I0
sg5
I35018
sg6
I0
sg7
I0
sg8
S'kristina.mordaunt@enron.com'
p42
sg10
g30
sg11
I0
sg12
I0
sg13
g30
sg14
I0
sg15
g30
sg16
I1411
sg17
I0
sg18
I325000
sg19
I1
sg20
I208510
sg21
g30
sg22
I208510
sg23
F0.0
sg24
I267093
sg25
I628522
sg26
F0.0
sg27
I0
ssS'MEYER ROCKFORD G'
p43
(dp44
g3
I232
sg4
I1848227
sg5
I0
sg6
I0
sg7
I0
sg8
S'rockford.meyer@enron.com'
p45
sg10
I0
sg11
I0
sg12
I0
sg13
I22
sg14
I0
sg15
I28
sg16
I0
sg17
I0
sg18
I0
sg19
I0
sg20
I955873
sg21
I0
sg22
I462384
sg23
F0.0
sg24
I0
sg25
I1848227
sg26
F0.0
sg27
I493489
ssS'MCMAHON JEFFREY'
p46
(dp47
g3
I2355
sg4
I0
sg5
I137108
sg6
I0
sg7
I694862
sg8
S'jeffrey.mcmahon@enron.com'
p48
sg10
I58
sg11
I0
sg12
I0
sg13
I2228
sg14
I0
sg15
I48
sg16
I297353
sg17
I0
sg18
I2600000
sg19
I0
sg20
I1662855
sg21
I26
sg22
I558801
sg23
F1.2083333333333333
sg24
I370448
sg25
I4099771
sg26
F0.011040339702760084
sg27
I1104054
ssS'HORTON STANLEY C'
p49
(dp50
g3
I2350
sg4
I3131860
sg5
I0
sg6
I0
sg7
I0
sg8
S'stanley.horton@enron.com'
p51
sg10
I44
sg11
I0
sg12
I0
sg13
I1074
sg14
I0
sg15
I1073
sg16
I0
sg17
I0
sg18
I0
sg19
I0
sg20
I7256648
sg21
I15
sg22
I2046079
sg23
F0.04100652376514446
sg24
I0
sg25
I3131860
sg26
F0.006382978723404255
sg27
I5210569
ssS'PIPER GREGORY F'
p52
(dp53
g3
I1238
sg4
I1130036
sg5
I43057
sg6
I0
sg7
I0
sg8
S'greg.piper@enron.com'
p54
sg10
I61
sg11
I-33333
sg12
I-409554
sg13
I742
sg14
I0
sg15
I222
sg16
I778
sg17
I0
sg18
I400000
sg19
I0
sg20
I880290
sg21
I48
sg22
I409554
sg23
F0.2747747747747748
sg24
I197091
sg25
I1737629
sg26
F0.03877221324717286
sg27
I880290
ssS'HUMPHREY GENE E'
p55
(dp56
g3
I128
sg4
I2964506
sg5
I4994
sg6
I0
sg7
I0
sg8
S'gene.humphrey@enron.com'
p57
sg10
I10
sg11
I0
sg12
I0
sg13
I119
sg14
I0
sg15
I17
sg16
I0
sg17
I0
sg18
I0
sg19
I0
sg20
I2282768
sg21
I17
sg22
I0
sg23
F0.5882352941176471
sg24
I130724
sg25
I3100224
sg26
F0.1328125
sg27
I2282768
ssS'UMANOFF ADAM S'
p58
(dp59
g3
I111
sg4
I0
sg5
I53122
sg6
I0
sg7
I0
sg8
S'adam.umanoff@enron.com'
p60
sg10
I12
sg11
I0
sg12
I0
sg13
I41
sg14
I0
sg15
I18
sg16
I0
sg17
I0
sg18
I788750
sg19
I0
sg20
I0
sg21
I0
sg22
I0
sg23
F0.6666666666666666
sg24
I288589
sg25
I1130461
sg26
F0.0
sg27
I0
ssS'BLACHMAN JEREMY M'
p61
(dp62
g3
I2475
sg4
I0
sg5
I84208
sg6
I0
sg7
I831809
sg8
S'jeremy.blachman@enron.com'
p63
sg10
I25
sg11
I0
sg12
I0
sg13
I2326
sg14
I0
sg15
I14
sg16
I272
sg17
I0
sg18
I850000
sg19
I0
sg20
I954354
sg21
I2
sg22
I189041
sg23
F1.7857142857142858
sg24
I248546
sg25
I2014835
sg26
F0.0008080808080808081
sg27
I765313
ssS'SUNDE MARTIN'
p64
(dp65
g3
I2647
sg4
I0
sg5
I0
sg6
I0
sg7
I476451
sg8
S'marty.sunde@enron.com'
p66
sg10
I37
sg11
I0
sg12
I0
sg13
I2565
sg14
I0
sg15
I38
sg16
I111122
sg17
I0
sg18
I700000
sg19
I0
sg20
I698920
sg21
I13
sg22
I698920
sg23
F0.9736842105263158
sg24
I257486
sg25
I1545059
sg26
F0.004911220249338874
sg27
I0
ssS'GIBBS DANA R'
p67
(dp68
g3
I169
sg4
I504610
sg5
I0
sg6
I0
sg7
I461912
sg8
S'dana.gibbs@enron.com'
p69
sg10
I0
sg11
I0
sg12
I0
sg13
I23
sg14
I0
sg15
I12
sg16
I0
sg17
I0
sg18
I0
sg19
I0
sg20
I2218275
sg21
I0
sg22
I0
sg23
F0.0
sg24
I0
sg25
I966522
sg26
F0.0
sg27
I2218275
ssS'LOWRY CHARLES P'
p70
(dp71
g3
g30
sg4
I0
sg5
I0
sg6
I0
sg7
I0
sg8
g30
sg10
g30
sg11
I0
sg12
I-153686
sg13
g30
sg14
I0
sg15
g30
sg16
I0
sg17
I0
sg18
I0
sg19
I1
sg20
I372205
sg21
g30
sg22
I153686
sg23
F0.0
sg24
I0
sg25
I0
sg26
F0.0
sg27
I372205
ssS'COLWELL WESLEY'
p72
(dp73
g3
I1758
sg4
I27610
sg5
I16514
sg6
I1
sg7
I0
sg8
S'wes.colwell@enron.com'
p74
sg10
I240
sg11
I-144062
sg12
I0
sg13
I1132
sg14
I0
sg15
I40
sg16
I101740
sg17
I0
sg18
I1200000
sg19
I0
sg20
I698242
sg21
I11
sg22
I698242
sg23
F6.0
sg24
I288542
sg25
I1490344
sg26
F0.006257110352673493
sg27
I0
ssS'MULLER MARK S'
p75
(dp76
g3
I136
sg4
I842924
sg5
I0
sg6
I0
sg7
I1725545
sg8
S's..muller@enron.com'
p77
sg10
I12
sg11
I-719000
sg12
I0
sg13
I114
sg14
I0
sg15
I16
sg16
I947
sg17
I0
sg18
I1100000
sg19
I0
sg20
I1416848
sg21
I0
sg22
I360528
sg23
F0.75
sg24
I251654
sg25
I3202070
sg26
F0.0
sg27
I1056320
ssS'JACKSON CHARLENE R'
p78
(dp79
g3
I258
sg4
I0
sg5
I10181
sg6
I0
sg7
I0
sg8
S'charlene.jackson@enron.com'
p80
sg10
I25
sg11
I0
sg12
I0
sg13
I117
sg14
I0
sg15
I56
sg16
I2435
sg17
I0
sg18
I250000
sg19
I0
sg20
I725735
sg21
I19
sg22
I540672
sg23
F0.44642857142857145
sg24
I288558
sg25
I551174
sg26
F0.07364341085271318
sg27
I185063
ssS'WESTFAHL RICHARD K'
p81
(dp82
g3
g30
sg4
I0
sg5
I51870
sg6
I0
sg7
I256191
sg8
S'dick.westfahl@enron.com'
p83
sg10
g30
sg11
I-10800
sg12
I0
sg13
g30
sg14
I0
sg15
g30
sg16
I401130
sg17
I0
sg18
I0
sg19
I1
sg20
I384930
sg21
g30
sg22
I384930
sg23
F0.0
sg24
I63744
sg25
I762135
sg26
F0.0
sg27
I0
ssS'WALTERS GARETH W'
p84
(dp85
g3
g30
sg4
I53625
sg5
I33785
sg6
I0
sg7
I0
sg8
g30
sg10
g30
sg11
I0
sg12
I0
sg13
g30
sg14
I0
sg15
g30
sg16
I0
sg17
I0
sg18
I0
sg19
I1
sg20
I1030329
sg21
g30
sg22
I0
sg23
F0.0
sg24
I0
sg25
I87410
sg26
F0.0
sg27
I1030329
ssS'WALLS JR ROBERT H'
p86
(dp87
g3
I671
sg4
I0
sg5
I50936
sg6
I0
sg7
I540751
sg8
S'rob.walls@enron.com'
p88
sg10
I17
sg11
I0
sg12
I0
sg13
I215
sg14
I0
sg15
I146
sg16
I2
sg17
I0
sg18
I850000
sg19
I0
sg20
I5898997
sg21
I0
sg22
I1552453
sg23
F0.11643835616438356
sg24
I357091
sg25
I1798780
sg26
F0.0
sg27
I4346544
ssS'KITCHEN LOUISE'
p89
(dp90
g3
I8305
sg4
I0
sg5
I5774
sg6
I0
sg7
I0
sg8
S'louise.kitchen@enron.com'
p91
sg10
I251
sg11
I0
sg12
I0
sg13
I3669
sg14
I0
sg15
I1728
sg16
I93925
sg17
I0
sg18
I3100000
sg19
I0
sg20
I547143
sg21
I194
sg22
I466101
sg23
F0.14525462962962962
sg24
I271442
sg25
I3471141
sg26
F0.023359422034918725
sg27
I81042
ssS'CHAN RONNIE'
p92
(dp93
g3
g30
sg4
I0
sg5
I0
sg6
I0
sg7
I0
sg8
g30
sg10
g30
sg11
I-98784
sg12
I-32460
sg13
g30
sg14
I0
sg15
g30
sg16
I0
sg17
I98784
sg18
I0
sg19
I1
sg20
I0
sg21
g30
sg22
I32460
sg23
F0.0
sg24
I0
sg25
I0
sg26
F0.0
sg27
I0
ssS'BELFER ROBERT'
p94
(dp95
g3
g30
sg4
I-102500
sg5
I0
sg6
I0
sg7
I0
sg8
g30
sg10
g30
sg11
I0
sg12
I44093
sg13
g30
sg14
I0
sg15
g30
sg16
I0
sg17
I3285
sg18
I0
sg19
I1
sg20
I-44093
sg21
g30
sg22
I0
sg23
F0.0
sg24
I0
sg25
I102500
sg26
F0.0
sg27
I3285
ssS'SHANKMAN JEFFREY A'
p96
(dp97
g3
I3221
sg4
I0
sg5
I178979
sg6
I0
sg7
I554422
sg8
S'jeffrey.shankman@enron.com'
p98
sg10
I94
sg11
I0
sg12
I0
sg13
I1730
sg14
I0
sg15
I2681
sg16
I1191
sg17
I0
sg18
I2000000
sg19
I0
sg20
I2072035
sg21
I83
sg22
I630137
sg23
F0.0350615441999254
sg24
I304110
sg25
I3038702
sg26
F0.025768394908413535
sg27
I1441898
ssS'WODRASKA JOHN'
p99
(dp100
g3
g30
sg4
I0
sg5
I0
sg6
I0
sg7
I0
sg8
S'john.wodraska@enron.com'
p101
sg10
g30
sg11
I0
sg12
I0
sg13
g30
sg14
I0
sg15
g30
sg16
I189583
sg17
I0
sg18
I0
sg19
I1
sg20
I0
sg21
g30
sg22
I0
sg23
F0.0
sg24
I0
sg25
I189583
sg26
F0.0
sg27
I0
ssS'BERGSIEKER RICHARD P'
p102
(dp103
g3
I383
sg4
I0
sg5
I59175
sg6
I0
sg7
I180250
sg8
S'rick.bergsieker@enron.com'
p104
sg10
I4
sg11
I-485813
sg12
I0
sg13
I233
sg14
I0
sg15
I59
sg16
I427316
sg17
I0
sg18
I250000
sg19
I0
sg20
I659249
sg21
I0
sg22
I659249
sg23
F0.06779661016949153
sg24
I187922
sg25
I618850
sg26
F0.0
sg27
I0
ssS'URQUHART JOHN A'
p105
(dp106
g3
g30
sg4
I0
sg5
I228656
sg6
I0
sg7
I0
sg8
g30
sg10
g30
sg11
I-36666
sg12
I0
sg13
g30
sg14
I0
sg15
g30
sg16
I0
sg17
I36666
sg18
I0
sg19
I1
sg20
I0
sg21
g30
sg22
I0
sg23
F0.0
sg24
I0
sg25
I228656
sg26
F0.0
sg27
I0
ssS'BIBI PHILIPPE A'
p107
(dp108
g3
I1607
sg4
I0
sg5
I38559
sg6
I0
sg7
I369721
sg8
S'philippe.bibi@enron.com'
p109
sg10
I23
sg11
I0
sg12
I0
sg13
I1336
sg14
I0
sg15
I40
sg16
I425688
sg17
I0
sg18
I1000000
sg19
I0
sg20
I1843816
sg21
I8
sg22
I378082
sg23
F0.575
sg24
I213625
sg25
I2047593
sg26
F0.004978220286247666
sg27
I1465734
ssS'PIRO JIM'
p110
(dp111
g3
I58
sg4
I0
sg5
I0
sg6
I0
sg7
I0
sg8
S'jim.piro@enron.com'
p112
sg10
I0
sg11
I0
sg12
I0
sg13
I3
sg14
I0
sg15
I16
sg16
I0
sg17
I0
sg18
I0
sg19
I0
sg20
I47304
sg21
I1
sg22
I47304
sg23
F0.0
sg24
I0
sg25
I0
sg26
F0.017241379310344827
sg27
I0
ssS'RIEKER PAULA H'
p113
(dp114
g3
I1328
sg4
I214678
sg5
I33271
sg6
I1
sg7
I0
sg8
S'paula.rieker@enron.com'
p115
sg10
I35
sg11
I-100000
sg12
I0
sg13
I1258
sg14
I0
sg15
I82
sg16
I1950
sg17
I0
sg18
I700000
sg19
I0
sg20
I1918887
sg21
I48
sg22
I283649
sg23
F0.4268292682926829
sg24
I249201
sg25
I1099100
sg26
F0.03614457831325301
sg27
I1635238
ssS'WHALEY DAVID A'
p116
(dp117
g3
g30
sg4
I0
sg5
I0
sg6
I0
sg7
I0
sg8
g30
sg10
g30
sg11
I0
sg12
I0
sg13
g30
sg14
I0
sg15
g30
sg16
I0
sg17
I0
sg18
I0
sg19
I1
sg20
I98718
sg21
g30
sg22
I0
sg23
F0.0
sg24
I0
sg25
I0
sg26
F0.0
sg27
I98718
ssS'BECK SALLY W'
p118
(dp119
g3
I7315
sg4
I0
sg5
I37172
sg6
I0
sg7
I0
sg8
S'sally.beck@enron.com'
p120
sg10
I144
sg11
I0
sg12
I0
sg13
I2639
sg14
I0
sg15
I4343
sg16
I566
sg17
I0
sg18
I700000
sg19
I0
sg20
I126027
sg21
I386
sg22
I126027
sg23
F0.033156804052498275
sg24
I231330
sg25
I969068
sg26
F0.052768284347231714
sg27
I0
ssS'HAUG DAVID L'
p121
(dp122
g3
I573
sg4
I0
sg5
I475
sg6
I0
sg7
I0
sg8
S'david.haug@enron.com'
p123
sg10
I4
sg11
I0
sg12
I0
sg13
I471
sg14
I0
sg15
I19
sg16
I0
sg17
I0
sg18
I0
sg19
I0
sg20
I2217299
sg21
I7
sg22
I2217299
sg23
F0.21052631578947367
sg24
I0
sg25
I475
sg26
F0.012216404886561954
sg27
I0
ssS'ECHOLS JOHN B'
p124
(dp125
g3
g30
sg4
I0
sg5
I21530
sg6
I0
sg7
I2234774
sg8
S'john.echols@enron.com'
p126
sg10
g30
sg11
I0
sg12
I0
sg13
g30
sg14
I0
sg15
g30
sg16
I53775
sg17
I0
sg18
I200000
sg19
I1
sg20
I1008941
sg21
g30
sg22
I407503
sg23
F0.0
sg24
I182245
sg25
I2692324
sg26
F0.0
sg27
I601438
ssS'MENDELSOHN JOHN'
p127
(dp128
g3
g30
sg4
I0
sg5
I148
sg6
I0
sg7
I0
sg8
g30
sg10
g30
sg11
I-103750
sg12
I0
sg13
g30
sg14
I0
sg15
g30
sg16
I0
sg17
I103750
sg18
I0
sg19
I1
sg20
I0
sg21
g30
sg22
I0
sg23
F0.0
sg24
I0
sg25
I148
sg26
F0.0
sg27
I0
ssS'HICKERSON GARY J'
p129
(dp130
g3
I1320
sg4
I0
sg5
I98849
sg6
I0
sg7
I69223
sg8
S'gary.hickerson@enron.com'
p131
sg10
I40
sg11
I0
sg12
I0
sg13
I900
sg14
I0
sg15
I27
sg16
I1936
sg17
I0
sg18
I1700000
sg19
I0
sg20
I441096
sg21
I1
sg22
I441096
sg23
F1.4814814814814814
sg24
I211788
sg25
I2081796
sg26
F0.0007575757575757576
sg27
I0
ssS'CLINE KENNETH W'
p132
(dp133
g3
g30
sg4
I0
sg5
I0
sg6
I0
sg7
I0
sg8
g30
sg10
g30
sg11
I0
sg12
I-472568
sg13
g30
sg14
I0
sg15
g30
sg16
I0
sg17
I0
sg18
I0
sg19
I1
sg20
I189518
sg21
g30
sg22
I662086
sg23
F0.0
sg24
I0
sg25
I0
sg26
F0.0
sg27
I0
ssS'LEWIS RICHARD'
p134
(dp135
g3
I952
sg4
I0
sg5
I0
sg6
I0
sg7
I0
sg8
S'richard.lewis@enron.com'
p136
sg10
I10
sg11
I0
sg12
I0
sg13
I739
sg14
I0
sg15
I26
sg16
I0
sg17
I0
sg18
I0
sg19
I0
sg20
I850477
sg21
I0
sg22
I0
sg23
F0.38461538461538464
sg24
I0
sg25
I0
sg26
F0.0
sg27
I850477
ssS'HAYES ROBERT E'
p137
(dp138
g3
I504
sg4
I7961
sg5
I0
sg6
I0
sg7
I0
sg8
S'robert.hayes@enron.com'
p139
sg10
I16
sg11
I0
sg12
I0
sg13
I50
sg14
I0
sg15
I12
sg16
I0
sg17
I0
sg18
I0
sg19
I0
sg20
I151418
sg21
I0
sg22
I151418
sg23
F1.3333333333333333
sg24
I0
sg25
I7961
sg26
F0.0
sg27
I0
ssS'KOPPER MICHAEL J'
p140
(dp141
g3
g30
sg4
I0
sg5
I118134
sg6
I1
sg7
I602671
sg8
S'michael.kopper@enron.com'
p142
sg10
g30
sg11
I0
sg12
I0
sg13
g30
sg14
I0
sg15
g30
sg16
I907502
sg17
I0
sg18
I800000
sg19
I1
sg20
I985032
sg21
g30
sg22
I985032
sg23
F0.0
sg24
I224305
sg25
I2652612
sg26
F0.0
sg27
I0
ssS'LEFF DANIEL P'
p143
(dp144
g3
I2822
sg4
I0
sg5
I0
sg6
I0
sg7
I1387399
sg8
S'dan.leff@enron.com'
p145
sg10
I67
sg11
I0
sg12
I0
sg13
I2672
sg14
I0
sg15
I63
sg16
I3083
sg17
I0
sg18
I1000000
sg19
I0
sg20
I360528
sg21
I14
sg22
I360528
sg23
F1.0634920634920635
sg24
I273746
sg25
I2664228
sg26
F0.004961020552799433
sg27
I0
ssS'LAVORATO JOHN J'
p146
(dp147
g3
I7259
sg4
I0
sg5
I49537
sg6
I0
sg7
I2035380
sg8
S'john.lavorato@enron.com'
p148
sg10
I528
sg11
I0
sg12
I0
sg13
I3962
sg14
I0
sg15
I2585
sg16
I1552
sg17
I0
sg18
I8000000
sg19
I0
sg20
I5167144
sg21
I411
sg22
I1008149
sg23
F0.20425531914893616
sg24
I339288
sg25
I10425757
sg26
F0.05661936905909905
sg27
I4158995
ssS'BERBERIAN DAVID'
p149
(dp150
g3
g30
sg4
I0
sg5
I11892
sg6
I0
sg7
I0
sg8
S'david.berberian@enron.com'
p151
sg10
g30
sg11
I0
sg12
I0
sg13
g30
sg14
I0
sg15
g30
sg16
I0
sg17
I0
sg18
I0
sg19
I1
sg20
I2493616
sg21
g30
sg22
I869220
sg23
F0.0
sg24
I216582
sg25
I228474
sg26
F0.0
sg27
I1624396
ssS'DETMERING TIMOTHY J'
p152
(dp153
g3
g30
sg4
I875307
sg5
I52255
sg6
I0
sg7
I415657
sg8
S'timothy.detmering@enron.com'
p154
sg10
g30
sg11
I-775241
sg12
I-315068
sg13
g30
sg14
I0
sg15
g30
sg16
I1105
sg17
I0
sg18
I425000
sg19
I1
sg20
I2027865
sg21
g30
sg22
I315068
sg23
F0.0
sg24
I210500
sg25
I1204583
sg26
F0.0
sg27
I2027865
ssS'WAKEHAM JOHN'
p155
(dp156
g3
g30
sg4
I0
sg5
I103773
sg6
I0
sg7
I0
sg8
g30
sg10
g30
sg11
I0
sg12
I0
sg13
g30
sg14
I0
sg15
g30
sg16
I0
sg17
I109298
sg18
I0
sg19
I1
sg20
I0
sg21
g30
sg22
I0
sg23
F0.0
sg24
I0
sg25
I213071
sg26
F0.0
sg27
I0
ssS'POWERS WILLIAM'
p157
(dp158
g3
I653
sg4
I0
sg5
I0
sg6
I0
sg7
I0
sg8
S'ken.powers@enron.com'
p159
sg10
I0
sg11
I-17500
sg12
I0
sg13
I12
sg14
I0
sg15
I26
sg16
I0
sg17
I17500
sg18
I0
sg19
I0
sg20
I0
sg21
I0
sg22
I0
sg23
F0.0
sg24
I0
sg25
I0
sg26
F0.0
sg27
I0
ssS'GOLD JOSEPH'
p160
(dp161
g3
g30
sg4
I0
sg5
I0
sg6
I0
sg7
I304805
sg8
S'joe.gold@enron.com'
p162
sg10
g30
sg11
I0
sg12
I0
sg13
g30
sg14
I0
sg15
g30
sg16
I819288
sg17
I0
sg18
I750000
sg19
I1
sg20
I877611
sg21
g30
sg22
I441096
sg23
F0.0
sg24
I272880
sg25
I2146973
sg26
F0.0
sg27
I436515
ssS'BANNANTINE JAMES M'
p163
(dp164
g3
I566
sg4
I0
sg5
I56301
sg6
I0
sg7
I0
sg8
S'james.bannantine@enron.com'
p165
sg10
I39
sg11
I-5104
sg12
I-560222
sg13
I465
sg14
I0
sg15
I29
sg16
I864523
sg17
I0
sg18
I0
sg19
I0
sg20
I5243487
sg21
I0
sg22
I1757552
sg23
F1.3448275862068966
sg24
I477
sg25
I916197
sg26
F0.0
sg27
I4046157
ssS'DUNCAN JOHN H'
p166
(dp167
g3
g30
sg4
I0
sg5
I0
sg6
I0
sg7
I0
sg8
g30
sg10
g30
sg11
I-25000
sg12
I0
sg13
g30
sg14
I0
sg15
g30
sg16
I0
sg17
I102492
sg18
I0
sg19
I1
sg20
I371750
sg21
g30
sg22
I0
sg23
F0.0
sg24
I0
sg25
I77492
sg26
F0.0
sg27
I371750
ssS'SHAPIRO RICHARD S'
p168
(dp169
g3
I15149
sg4
I0
sg5
I137767
sg6
I0
sg7
I0
sg8
S'richard.shapiro@enron.com'
p170
sg10
I74
sg11
I0
sg12
I0
sg13
I4527
sg14
I0
sg15
I1215
sg16
I705
sg17
I0
sg18
I650000
sg19
I0
sg20
I987001
sg21
I65
sg22
I379164
sg23
F0.060905349794238686
sg24
I269076
sg25
I1057548
sg26
F0.004290712258234867
sg27
I607837
ssS'SHERRIFF JOHN R'
p171
(dp172
g3
I3187
sg4
I0
sg5
I0
sg6
I0
sg7
I554422
sg8
S'john.sherriff@enron.com'
p173
sg10
I28
sg11
I0
sg12
I0
sg13
I2103
sg14
I0
sg15
I92
sg16
I1852186
sg17
I0
sg18
I1500000
sg19
I0
sg20
I3128982
sg21
I23
sg22
I1293424
sg23
F0.30434782608695654
sg24
I428780
sg25
I4335388
sg26
F0.0072168183244430495
sg27
I1835558
ssS'SHELBY REX'
p174
(dp175
g3
I225
sg4
I0
sg5
I22884
sg6
I1
sg7
I0
sg8
S'rex.shelby@enron.com'
p176
sg10
I13
sg11
I-4167
sg12
I0
sg13
I91
sg14
I0
sg15
I39
sg16
I1573324
sg17
I0
sg18
I200000
sg19
I0
sg20
I2493616
sg21
I14
sg22
I869220
sg23
F0.3333333333333333
sg24
I211844
sg25
I2003885
sg26
F0.06222222222222222
sg27
I1624396
ssS'LEMAISTRE CHARLES'
p177
(dp178
g3
g30
sg4
I0
sg5
I0
sg6
I0
sg7
I0
sg8
g30
sg10
g30
sg11
I-25000
sg12
I0
sg13
g30
sg14
I0
sg15
g30
sg16
I0
sg17
I112492
sg18
I0
sg19
I1
sg20
I412878
sg21
g30
sg22
I0
sg23
F0.0
sg24
I0
sg25
I87492
sg26
F0.0
sg27
I412878
ssS'DEFFNER JOSEPH M'
p179
(dp180
g3
I714
sg4
I0
sg5
I41626
sg6
I0
sg7
I335349
sg8
S'joseph.deffner@enron.com'
p181
sg10
I115
sg11
I0
sg12
I0
sg13
I552
sg14
I0
sg15
I74
sg16
I25553
sg17
I0
sg18
I600000
sg19
I0
sg20
I159211
sg21
I4
sg22
I141833
sg23
F1.554054054054054
sg24
I206121
sg25
I1208649
sg26
F0.0056022408963585435
sg27
I17378
ssS'KISHKILL JOSEPH G'
p182
(dp183
g3
g30
sg4
I0
sg5
I116335
sg6
I0
sg7
I0
sg8
S'joe.kishkill@enron.com'
p184
sg10
g30
sg11
I-51042
sg12
I0
sg13
g30
sg14
I0
sg15
g30
sg16
I465357
sg17
I0
sg18
I0
sg19
I1
sg20
I1034346
sg21
g30
sg22
I1034346
sg23
F0.0
sg24
I174246
sg25
I704896
sg26
F0.0
sg27
I0
ssS'WHALLEY LAWRENCE G'
p185
(dp186
g3
I6019
sg4
I0
sg5
I57838
sg6
I0
sg7
I808346
sg8
S'greg.whalley@enron.com'
p187
sg10
I186
sg11
I0
sg12
I0
sg13
I3920
sg14
I0
sg15
I556
sg16
I301026
sg17
I0
sg18
I3000000
sg19
I0
sg20
I6079137
sg21
I24
sg22
I2796177
sg23
F0.3345323741007194
sg24
I510364
sg25
I4677574
sg26
F0.003987373317826882
sg27
I3282960
ssS'MCCARTY DANNY J'
p188
(dp189
g3
I1433
sg4
I0
sg5
I0
sg6
I0
sg7
I0
sg8
S'danny.mccarty@enron.com'
p190
sg10
I25
sg11
I0
sg12
I0
sg13
I508
sg14
I0
sg15
I215
sg16
I0
sg17
I0
sg18
I0
sg19
I0
sg20
I758931
sg21
I2
sg22
I94556
sg23
F0.11627906976744186
sg24
I0
sg25
I0
sg26
F0.0013956734124214933
sg27
I664375
ssS'MCCONNELL MICHAEL S'
p191
(dp192
g3
I3329
sg4
I0
sg5
I81364
sg6
I0
sg7
I554422
sg8
S'mike.mcconnell@enron.com'
p193
sg10
I92
sg11
I0
sg12
I0
sg13
I2189
sg14
I0
sg15
I2742
sg16
I540
sg17
I0
sg18
I1100000
sg19
I0
sg20
I3101279
sg21
I194
sg22
I1478269
sg23
F0.03355215171407731
sg24
I365038
sg25
I2101364
sg26
F0.058275758486031844
sg27
I1623010
ssS'DELAINEY DAVID W'
p194
(dp195
g3
I3093
sg4
I0
sg5
I86174
sg6
I1
sg7
I1294981
sg8
S'david.delainey@enron.com'
p196
sg10
I66
sg11
I0
sg12
I0
sg13
I2097
sg14
I0
sg15
I3069
sg16
I1661
sg17
I0
sg18
I3000000
sg19
I0
sg20
I3614261
sg21
I609
sg22
I1323148
sg23
F0.021505376344086023
sg24
I365163
sg25
I4747979
sg26
F0.19689621726479145
sg27
I2291113
ssS'SULLIVAN-SHAKLOVITZ COLLEEN'
p197
(dp198
g3
g30
sg4
I181993
sg5
I0
sg6
I0
sg7
I554422
sg8
g30
sg10
g30
sg11
I0
sg12
I0
sg13
g30
sg14
I0
sg15
g30
sg16
I162
sg17
I0
sg18
I100000
sg19
I1
sg20
I1362375
sg21
g30
sg22
I0
sg23
F0.0
sg24
I162779
sg25
I999356
sg26
F0.0
sg27
I1362375
ssS'WROBEL BRUCE'
p199
(dp200
g3
g30
sg4
I0
sg5
I0
sg6
I0
sg7
I0
sg8
g30
sg10
g30
sg11
I0
sg12
I0
sg13
g30
sg14
I0
sg15
g30
sg16
I0
sg17
I0
sg18
I0
sg19
I1
sg20
I139130
sg21
g30
sg22
I0
sg23
F0.0
sg24
I0
sg25
I0
sg26
F0.0
sg27
I139130
ssS'LINDHOLM TOD A'
p201
(dp202
g3
g30
sg4
I204075
sg5
I57727
sg6
I0
sg7
I175000
sg8
S'tod.lindholm@enron.com'
p203
sg10
g30
sg11
I0
sg12
I0
sg13
g30
sg14
I0
sg15
g30
sg16
I2630
sg17
I0
sg18
I200000
sg19
I1
sg20
I3064208
sg21
g30
sg22
I514847
sg23
F0.0
sg24
I236457
sg25
I875889
sg26
F0.0
sg27
I2549361
ssS'MEYER JEROME J'
p204
(dp205
g3
g30
sg4
I0
sg5
I2151
sg6
I0
sg7
I0
sg8
g30
sg10
g30
sg11
I-38346
sg12
I0
sg13
g30
sg14
I0
sg15
g30
sg16
I0
sg17
I38346
sg18
I0
sg19
I1
sg20
I0
sg21
g30
sg22
I0
sg23
F0.0
sg24
I0
sg25
I2151
sg26
F0.0
sg27
I0
ssS'LAY KENNETH L'
p206
(dp207
g3
I4273
sg4
I202911
sg5
I99832
sg6
I1
sg7
I3600000
sg8
S'kenneth.lay@enron.com'
p208
sg10
I123
sg11
I-300000
sg12
I0
sg13
I2411
sg14
I81525000
sg15
I36
sg16
I10359729
sg17
I0
sg18
I7000000
sg19
I0
sg20
I49110078
sg21
I16
sg22
I14761694
sg23
F3.4166666666666665
sg24
I1072321
sg25
I103559793
sg26
F0.003744441844137608
sg27
I34348384
ssS'BUTTS ROBERT H'
p209
(dp210
g3
g30
sg4
I0
sg5
I9410
sg6
I0
sg7
I175000
sg8
S'bob.butts@enron.com'
p211
sg10
g30
sg11
I-75000
sg12
I0
sg13
g30
sg14
I0
sg15
g30
sg16
I150656
sg17
I0
sg18
I750000
sg19
I1
sg20
I417619
sg21
g30
sg22
I417619
sg23
F0.0
sg24
I261516
sg25
I1271582
sg26
F0.0
sg27
I0
ssS'OLSON CINDY K'
p212
(dp213
g3
I1184
sg4
I77716
sg5
I63791
sg6
I0
sg7
I100000
sg8
S'cindy.olson@enron.com'
p214
sg10
I20
sg11
I0
sg12
I0
sg13
I856
sg14
I0
sg15
I52
sg16
I972
sg17
I0
sg18
I750000
sg19
I0
sg20
I2606763
sg21
I15
sg22
I969729
sg23
F0.38461538461538464
sg24
I329078
sg25
I1321557
sg26
F0.01266891891891892
sg27
I1637034
ssS'MCDONALD REBECCA'
p215
(dp216
g3
I894
sg4
I0
sg5
I0
sg6
I0
sg7
I0
sg8
S'rebecca.mcdonald@enron.com'
p217
sg10
I54
sg11
I0
sg12
I0
sg13
I720
sg14
I0
sg15
I13
sg16
I0
sg17
I0
sg18
I0
sg19
I0
sg20
I1691366
sg21
I1
sg22
I934065
sg23
F4.153846153846154
sg24
I0
sg25
I0
sg26
F0.0011185682326621924
sg27
I757301
ssS'CUMBERLAND MICHAEL S'
p218
(dp219
g3
g30
sg4
I0
sg5
I22344
sg6
I0
sg7
I275000
sg8
g30
sg10
g30
sg11
I0
sg12
I0
sg13
g30
sg14
I0
sg15
g30
sg16
I713
sg17
I0
sg18
I325000
sg19
I1
sg20
I207940
sg21
g30
sg22
I207940
sg23
F0.0
sg24
I184899
sg25
I807956
sg26
F0.0
sg27
I0
ssS'GAHN ROBERT S'
p220
(dp221
g3
g30
sg4
I73122
sg5
I50080
sg6
I0
sg7
I0
sg8
g30
sg10
g30
sg11
I-1042
sg12
I0
sg13
g30
sg14
I0
sg15
g30
sg16
I76547
sg17
I0
sg18
I509870
sg19
I1
sg20
I318607
sg21
g30
sg22
I235370
sg23
F0.0
sg24
I192008
sg25
I900585
sg26
F0.0
sg27
I83237
ssS'MCCLELLAN GEORGE'
p222
(dp223
g3
I1744
sg4
I0
sg5
I228763
sg6
I0
sg7
I0
sg8
S'george.mcclellan@enron.com'
p224
sg10
I52
sg11
I-125000
sg12
I0
sg13
I1469
sg14
I0
sg15
I49
sg16
I51587
sg17
I0
sg18
I900000
sg19
I0
sg20
I947861
sg21
I0
sg22
I441096
sg23
F1.0612244897959184
sg24
I263413
sg25
I1318763
sg26
F0.0
sg27
I506765
ssS'HERMANN ROBERT J'
p225
(dp226
g3
g30
sg4
I0
sg5
I48357
sg6
I0
sg7
I150000
sg8
S'robert.hermann@enron.com'
p227
sg10
g30
sg11
I-280000
sg12
I0
sg13
g30
sg14
I0
sg15
g30
sg16
I416441
sg17
I0
sg18
I700000
sg19
I1
sg20
I668132
sg21
g30
sg22
I480632
sg23
F0.0
sg24
I262663
sg25
I1297461
sg26
F0.0
sg27
I187500
ssS'SCRIMSHAW MATTHEW'
p228
(dp229
g3
g30
sg4
I0
sg5
I0
sg6
I0
sg7
I0
sg8
S'matthew.scrimshaw@enron.com'
p230
sg10
g30
sg11
I0
sg12
I0
sg13
g30
sg14
I0
sg15
g30
sg16
I0
sg17
I0
sg18
I0
sg19
I1
sg20
I759557
sg21
g30
sg22
I0
sg23
F0.0
sg24
I0
sg25
I0
sg26
F0.0
sg27
I759557
ssS'GATHMANN WILLIAM D'
p231
(dp232
g3
g30
sg4
I0
sg5
I0
sg6
I0
sg7
I0
sg8
g30
sg10
g30
sg11
I0
sg12
I-72419
sg13
g30
sg14
I0
sg15
g30
sg16
I0
sg17
I0
sg18
I0
sg19
I1
sg20
I1945360
sg21
g30
sg22
I264013
sg23
F0.0
sg24
I0
sg25
I0
sg26
F0.0
sg27
I1753766
ssS'HAEDICKE MARK E'
p233
(dp234
g3
I4009
sg4
I2157527
sg5
I76169
sg6
I0
sg7
I983346
sg8
S'mark.haedicke@enron.com'
p235
sg10
I180
sg11
I-934484
sg12
I-329825
sg13
I1847
sg14
I0
sg15
I1941
sg16
I52382
sg17
I0
sg18
I1150000
sg19
I0
sg20
I803094
sg21
I61
sg22
I524169
sg23
F0.09273570324574962
sg24
I374125
sg25
I3859065
sg26
F0.015215764529807932
sg27
I608750
ssS'BOWEN JR RAYMOND M'
p236
(dp237
g3
I1858
sg4
I0
sg5
I65907
sg6
I1
sg7
I974293
sg8
S'raymond.bowen@enron.com'
p238
sg10
I140
sg11
I-833
sg12
I0
sg13
I1593
sg14
I0
sg15
I27
sg16
I1621
sg17
I0
sg18
I1350000
sg19
I0
sg20
I252055
sg21
I15
sg22
I252055
sg23
F5.185185185185185
sg24
I278601
sg25
I2669589
sg26
F0.008073196986006458
sg27
I0
ssS'GILLIS JOHN'
p239
(dp240
g3
g30
sg4
I0
sg5
I0
sg6
I0
sg7
I0
sg8
g30
sg10
g30
sg11
I0
sg12
I0
sg13
g30
sg14
I0
sg15
g30
sg16
I0
sg17
I0
sg18
I0
sg19
I1
sg20
I85641
sg21
g30
sg22
I75838
sg23
F0.0
sg24
I0
sg25
I0
sg26
F0.0
sg27
I9803
ssS'FITZGERALD JAY L'
p241
(dp242
g3
I936
sg4
I0
sg5
I23870
sg6
I0
sg7
I556416
sg8
S'jay.fitzgerald@enron.com'
p243
sg10
I1
sg11
I0
sg12
I0
sg13
I723
sg14
I0
sg15
I16
sg16
I285414
sg17
I0
sg18
I350000
sg19
I0
sg20
I1621236
sg21
I8
sg22
I956775
sg23
F0.0625
sg24
I199157
sg25
I1414857
sg26
F0.008547008547008548
sg27
I664461
ssS'MORAN MICHAEL P'
p244
(dp245
g3
I672
sg4
I0
sg5
I0
sg6
I0
sg7
I0
sg8
S'michael.moran@enron.com'
p246
sg10
I0
sg11
I0
sg12
I0
sg13
I127
sg14
I0
sg15
I19
sg16
I0
sg17
I0
sg18
I0
sg19
I0
sg20
I221141
sg21
I0
sg22
I161602
sg23
F0.0
sg24
I0
sg25
I0
sg26
F0.0
sg27
I59539
ssS'REDMOND BRIAN L'
p247
(dp248
g3
I1671
sg4
I0
sg5
I14689
sg6
I0
sg7
I0
sg8
S'brian.redmond@enron.com'
p249
sg10
I204
sg11
I0
sg12
I0
sg13
I1063
sg14
I0
sg15
I221
sg16
I0
sg17
I0
sg18
I0
sg19
I0
sg20
I7890324
sg21
I49
sg22
I381285
sg23
F0.9230769230769231
sg24
I96840
sg25
I111529
sg26
F0.029323758228605626
sg27
I7509039
ssS'BAZELIDES PHILIP J'
p250
(dp251
g3
g30
sg4
I684694
sg5
I0
sg6
I0
sg7
I93750
sg8
g30
sg10
g30
sg11
I0
sg12
I0
sg13
g30
sg14
I0
sg15
g30
sg16
I874
sg17
I0
sg18
I0
sg19
I1
sg20
I1599641
sg21
g30
sg22
I0
sg23
F0.0
sg24
I80818
sg25
I860136
sg26
F0.0
sg27
I1599641
ssS'BELDEN TIMOTHY N'
p252
(dp253
g3
I7991
sg4
I2144013
sg5
I17355
sg6
I1
sg7
I0
sg8
S'tim.belden@enron.com'
p254
sg10
I228
sg11
I-2334434
sg12
I0
sg13
I5521
sg14
I0
sg15
I484
sg16
I210698
sg17
I0
sg18
I5249999
sg19
I0
sg20
I1110705
sg21
I108
sg22
I157569
sg23
F0.47107438016528924
sg24
I213999
sg25
I5501630
sg26
F0.013515204605180828
sg27
I953136
ssS'DURAN WILLIAM D'
p255
(dp256
g3
I904
sg4
I0
sg5
I25785
sg6
I0
sg7
I1105218
sg8
S'w.duran@enron.com'
p257
sg10
I106
sg11
I0
sg12
I0
sg13
I599
sg14
I0
sg15
I12
sg16
I1568
sg17
I0
sg18
I750000
sg19
I0
sg20
I1640910
sg21
I3
sg22
I189041
sg23
F8.833333333333334
sg24
I210692
sg25
I2093263
sg26
F0.00331858407079646
sg27
I1451869
ssS'THORN TERENCE H'
p258
(dp259
g3
I266
sg4
I16586
sg5
I46145
sg6
I0
sg7
I200000
sg8
S'terence.thorn@enron.com'
p260
sg10
I0
sg11
I0
sg12
I0
sg13
I73
sg14
I0
sg15
I41
sg16
I426629
sg17
I0
sg18
I0
sg19
I0
sg20
I4817796
sg21
I0
sg22
I365320
sg23
F0.0
sg24
I222093
sg25
I911453
sg26
F0.0
sg27
I4452476
ssS'FASTOW ANDREW S'
p261
(dp262
g3
g30
sg4
I0
sg5
I55921
sg6
I1
sg7
I1736055
sg8
S'andrew.fastow@enron.com'
p263
sg10
g30
sg11
I-1386055
sg12
I0
sg13
g30
sg14
I0
sg15
g30
sg16
I277464
sg17
I0
sg18
I1300000
sg19
I1
sg20
I1794412
sg21
g30
sg22
I1794412
sg23
F0.0
sg24
I440698
sg25
I2424083
sg26
F0.0
sg27
I0
ssS'FOY JOE'
p264
(dp265
g3
I57
sg4
I181755
sg5
I0
sg6
I0
sg7
I0
sg8
S'tracy.foy@enron.com'
p266
sg10
I0
sg11
I0
sg12
I0
sg13
I2
sg14
I0
sg15
I13
sg16
I0
sg17
I0
sg18
I0
sg19
I0
sg20
I343434
sg21
I0
sg22
I0
sg23
F0.0
sg24
I0
sg25
I181755
sg26
F0.0
sg27
I343434
ssS'CALGER CHRISTOPHER F'
p267
(dp268
g3
I2598
sg4
I0
sg5
I35818
sg6
I1
sg7
I375304
sg8
S'christopher.calger@enron.com'
p269
sg10
I199
sg11
I-262500
sg12
I0
sg13
I2188
sg14
I0
sg15
I144
sg16
I486
sg17
I0
sg18
I1250000
sg19
I0
sg20
I126027
sg21
I25
sg22
I126027
sg23
F1.3819444444444444
sg24
I240189
sg25
I1639297
sg26
F0.00962278675904542
sg27
I0
ssS'RICE KENNETH D'
p270
(dp271
g3
I905
sg4
I0
sg5
I46950
sg6
I1
sg7
I1617011
sg8
S'ken.rice@enron.com'
p272
sg10
I42
sg11
I-3504386
sg12
I0
sg13
I864
sg14
I0
sg15
I18
sg16
I174839
sg17
I0
sg18
I1750000
sg19
I0
sg20
I22542539
sg21
I4
sg22
I2748364
sg23
F2.3333333333333335
sg24
I420636
sg25
I505050
sg26
F0.004419889502762431
sg27
I19794175
ssS'KAMINSKI WINCENTY J'
p273
(dp274
g3
I4607
sg4
I0
sg5
I83585
sg6
I0
sg7
I323466
sg8
S'vince.kaminski@enron.com'
p275
sg10
I41
sg11
I0
sg12
I0
sg13
I583
sg14
I0
sg15
I14368
sg16
I4669
sg17
I0
sg18
I400000
sg19
I0
sg20
I976037
sg21
I171
sg22
I126027
sg23
F0.002853563474387528
sg24
I275101
sg25
I1086821
sg26
F0.03711742999782939
sg27
I850010
ssS'COX DAVID'
p276
(dp277
g3
I102
sg4
I0
sg5
I27861
sg6
I0
sg7
I0
sg8
S'chip.cox@enron.com'
p278
sg10
I0
sg11
I-41250
sg12
I0
sg13
I71
sg14
I0
sg15
I33
sg16
I494
sg17
I0
sg18
I800000
sg19
I0
sg20
I495633
sg21
I4
sg22
I378082
sg23
F0.0
sg24
I314288
sg25
I1101393
sg26
F0.0392156862745098
sg27
I117551
ssS'OVERDYKE JR JERE C'
p279
(dp280
g3
g30
sg4
I0
sg5
I18834
sg6
I0
sg7
I135836
sg8
S'jere.overdyke@enron.com'
p281
sg10
g30
sg11
I0
sg12
I0
sg13
g30
sg14
I0
sg15
g30
sg16
I176
sg17
I0
sg18
I0
sg19
I1
sg20
I7307594
sg21
g30
sg22
I2041016
sg23
F0.0
sg24
I94941
sg25
I249787
sg26
F0.0
sg27
I5266578
ssS'PEREIRA PAULO V. FERRAZ'
p282
(dp283
g3
g30
sg4
I0
sg5
I27942
sg6
I0
sg7
I0
sg8
g30
sg10
g30
sg11
I-101250
sg12
I0
sg13
g30
sg14
I0
sg15
g30
sg16
I0
sg17
I101250
sg18
I0
sg19
I1
sg20
I0
sg21
g30
sg22
I0
sg23
F0.0
sg24
I0
sg25
I27942
sg26
F0.0
sg27
I0
ssS'STABLER FRANK'
p284
(dp285
g3
g30
sg4
I0
sg5
I16514
sg6
I0
sg7
I0
sg8
S'frank.stabler@enron.com'
p286
sg10
g30
sg11
I0
sg12
I0
sg13
g30
sg14
I0
sg15
g30
sg16
I356071
sg17
I0
sg18
I500000
sg19
I1
sg20
I511734
sg21
g30
sg22
I511734
sg23
F0.0
sg24
I239502
sg25
I1112087
sg26
F0.0
sg27
I0
ssS'SKILLING JEFFREY K'
p287
(dp288
g3
I3627
sg4
I0
sg5
I29336
sg6
I1
sg7
I1920000
sg8
S'jeff.skilling@enron.com'
p289
sg10
I88
sg11
I0
sg12
I0
sg13
I2042
sg14
I0
sg15
I108
sg16
I22122
sg17
I0
sg18
I5600000
sg19
I0
sg20
I26093672
sg21
I30
sg22
I6843672
sg23
F0.8148148148148148
sg24
I1111258
sg25
I8682716
sg26
F0.008271298593879239
sg27
I19250000
ssS'BLAKE JR. NORMAN P'
p290
(dp291
g3
g30
sg4
I0
sg5
I1279
sg6
I0
sg7
I0
sg8
g30
sg10
g30
sg11
I-113784
sg12
I0
sg13
g30
sg14
I0
sg15
g30
sg16
I0
sg17
I113784
sg18
I0
sg19
I1
sg20
I0
sg21
g30
sg22
I0
sg23
F0.0
sg24
I0
sg25
I1279
sg26
F0.0
sg27
I0
ssS'SHERRICK JEFFREY B'
p292
(dp293
g3
I613
sg4
I0
sg5
I0
sg6
I0
sg7
I0
sg8
S'jeffrey.sherrick@enron.com'
p294
sg10
I39
sg11
I0
sg12
I0
sg13
I583
sg14
I0
sg15
I25
sg16
I0
sg17
I0
sg18
I0
sg19
I0
sg20
I1832468
sg21
I18
sg22
I405999
sg23
F1.56
sg24
I0
sg25
I0
sg26
F0.02936378466557912
sg27
I1426469
ssS'PRENTICE JAMES'
p295
(dp296
g3
g30
sg4
I564348
sg5
I0
sg6
I0
sg7
I0
sg8
S'james.prentice@enron.com'
p297
sg10
g30
sg11
I0
sg12
I0
sg13
g30
sg14
I0
sg15
g30
sg16
I0
sg17
I0
sg18
I0
sg19
I1
sg20
I1095040
sg21
g30
sg22
I208809
sg23
F0.0
sg24
I0
sg25
I564348
sg26
F0.0
sg27
I886231
ssS'GRAY RODNEY'
p298
(dp299
g3
g30
sg4
I93585
sg5
I0
sg6
I0
sg7
I365625
sg8
g30
sg10
g30
sg11
I0
sg12
I0
sg13
g30
sg14
I0
sg15
g30
sg16
I680833
sg17
I0
sg18
I0
sg19
I1
sg20
I0
sg21
g30
sg22
I0
sg23
F0.0
sg24
I6615
sg25
I1146658
sg26
F0.0
sg27
I0
ssS'PICKERING MARK R'
p300
(dp301
g3
I898
sg4
I0
sg5
I31653
sg6
I0
sg7
I0
sg8
S'mark.pickering@enron.com'
p302
sg10
I7
sg11
I0
sg12
I0
sg13
I728
sg14
I400000
sg15
I67
sg16
I0
sg17
I0
sg18
I300000
sg19
I0
sg20
I28798
sg21
I0
sg22
I0
sg23
F0.1044776119402985
sg24
I655037
sg25
I1386690
sg26
F0.0
sg27
I28798
ssS'NOLES JAMES L'
p303
(dp304
g3
g30
sg4
I774401
sg5
I0
sg6
I0
sg7
I0
sg8
g30
sg10
g30
sg11
I0
sg12
I-94556
sg13
g30
sg14
I0
sg15
g30
sg16
I0
sg17
I0
sg18
I0
sg19
I1
sg20
I368705
sg21
g30
sg22
I463261
sg23
F0.0
sg24
I0
sg25
I774401
sg26
F0.0
sg27
I0
ssS'KEAN STEVEN J'
p305
(dp306
g3
I12754
sg4
I0
sg5
I41953
sg6
I0
sg7
I300000
sg8
S'steven.kean@enron.com'
p307
sg10
I140
sg11
I0
sg12
I0
sg13
I3639
sg14
I0
sg15
I6759
sg16
I1231
sg17
I0
sg18
I1000000
sg19
I0
sg20
I6153642
sg21
I387
sg22
I4131594
sg23
F0.020713123243083296
sg24
I404338
sg25
I1747522
sg26
F0.03034342167163243
sg27
I2022048
ssS'FOWLER PEGGY'
p308
(dp309
g3
I517
sg4
I0
sg5
I0
sg6
I0
sg7
I0
sg8
S'kulvinder.fowler@enron.com'
p310
sg10
I0
sg11
I0
sg12
I0
sg13
I10
sg14
I0
sg15
I36
sg16
I0
sg17
I0
sg18
I0
sg19
I0
sg20
I1884748
sg21
I0
sg22
I560170
sg23
F0.0
sg24
I0
sg25
I0
sg26
F0.0
sg27
I1324578
ssS'WASAFF GEORGE'
p311
(dp312
g3
I400
sg4
I831299
sg5
I0
sg6
I0
sg7
I200000
sg8
S'george.wasaff@enron.com'
p313
sg10
I22
sg11
I-583325
sg12
I0
sg13
I337
sg14
I0
sg15
I30
sg16
I1425
sg17
I0
sg18
I325000
sg19
I0
sg20
I2056427
sg21
I7
sg22
I388167
sg23
F0.7333333333333333
sg24
I259996
sg25
I1034395
sg26
F0.0175
sg27
I1668260
ssS'WHITE JR THOMAS E'
p314
(dp315
g3
g30
sg4
I0
sg5
I81353
sg6
I0
sg7
I0
sg8
S'thomas.white@enron.com'
p316
sg10
g30
sg11
I0
sg12
I0
sg13
g30
sg14
I0
sg15
g30
sg16
I1085463
sg17
I0
sg18
I450000
sg19
I1
sg20
I15144123
sg21
g30
sg22
I13847074
sg23
F0.0
sg24
I317543
sg25
I1934359
sg26
F0.0
sg27
I1297049
ssS'CHRISTODOULOU DIOMEDES'
p317
(dp318
g3
g30
sg4
I0
sg5
I0
sg6
I0
sg7
I0
sg8
S'diomedes.christodoulou@enron.com'
p319
sg10
g30
sg11
I0
sg12
I0
sg13
g30
sg14
I0
sg15
g30
sg16
I0
sg17
I0
sg18
I0
sg19
I1
sg20
I6077885
sg21
g30
sg22
I950730
sg23
F0.0
sg24
I0
sg25
I0
sg26
F0.0
sg27
I5127155
ssS'ALLEN PHILLIP K'
p320
(dp321
g3
I2902
sg4
I2869717
sg5
I13868
sg6
I0
sg7
I304805
sg8
S'phillip.allen@enron.com'
p322
sg10
I47
sg11
I-3081055
sg12
I-126027
sg13
I1407
sg14
I0
sg15
I2195
sg16
I152
sg17
I0
sg18
I4175000
sg19
I0
sg20
I1729541
sg21
I65
sg22
I126027
sg23
F0.0214123006833713
sg24
I201955
sg25
I4484442
sg26
F0.022398345968297727
sg27
I1729541
ssS'SHARP VICTORIA T'
p323
(dp324
g3
I3136
sg4
I187469
sg5
I116337
sg6
I0
sg7
I422158
sg8
S'vicki.sharp@enron.com'
p325
sg10
I24
sg11
I0
sg12
I0
sg13
I2477
sg14
I0
sg15
I136
sg16
I2401
sg17
I0
sg18
I600000
sg19
I0
sg20
I494136
sg21
I6
sg22
I213063
sg23
F0.17647058823529413
sg24
I248146
sg25
I1576511
sg26
F0.001913265306122449
sg27
I281073
ssS'JAEDICKE ROBERT'
p326
(dp327
g3
g30
sg4
I0
sg5
I0
sg6
I0
sg7
I0
sg8
g30
sg10
g30
sg11
I-25000
sg12
I-44093
sg13
g30
sg14
I0
sg15
g30
sg16
I0
sg17
I108750
sg18
I0
sg19
I1
sg20
I431750
sg21
g30
sg22
I44093
sg23
F0.0
sg24
I0
sg25
I83750
sg26
F0.0
sg27
I431750
ssS'WINOKUR JR. HERBERT S'
p328
(dp329
g3
g30
sg4
I0
sg5
I1413
sg6
I0
sg7
I0
sg8
g30
sg10
g30
sg11
I-25000
sg12
I0
sg13
g30
sg14
I0
sg15
g30
sg16
I0
sg17
I108579
sg18
I0
sg19
I1
sg20
I0
sg21
g30
sg22
I0
sg23
F0.0
sg24
I0
sg25
I84992
sg26
F0.0
sg27
I0
ssS'BROWN MICHAEL'
p330
(dp331
g3
I1486
sg4
I0
sg5
I49288
sg6
I0
sg7
I0
sg8
S'michael.brown@enron.com'
p332
sg10
I13
sg11
I0
sg12
I0
sg13
I761
sg14
I0
sg15
I41
sg16
I0
sg17
I0
sg18
I0
sg19
I0
sg20
I0
sg21
I1
sg22
I0
sg23
F0.3170731707317073
sg24
I0
sg25
I49288
sg26
F0.0006729475100942127
sg27
I0
ssS'BADUM JAMES P'
p333
(dp334
g3
g30
sg4
I178980
sg5
I3486
sg6
I0
sg7
I0
sg8
g30
sg10
g30
sg11
I0
sg12
I0
sg13
g30
sg14
I0
sg15
g30
sg16
I0
sg17
I0
sg18
I0
sg19
I1
sg20
I257817
sg21
g30
sg22
I0
sg23
F0.0
sg24
I0
sg25
I182466
sg26
F0.0
sg27
I257817
ssS'HUGHES JAMES A'
p335
(dp336
g3
I719
sg4
I0
sg5
I0
sg6
I0
sg7
I0
sg8
S'james.hughes@enron.com'
p337
sg10
I35
sg11
I0
sg12
I0
sg13
I589
sg14
I0
sg15
I34
sg16
I0
sg17
I0
sg18
I0
sg19
I0
sg20
I1118394
sg21
I5
sg22
I363428
sg23
F1.0294117647058822
sg24
I0
sg25
I0
sg26
F0.006954102920723227
sg27
I754966
ssS'REYNOLDS LAWRENCE'
p338
(dp339
g3
g30
sg4
I51365
sg5
I8409
sg6
I0
sg7
I156250
sg8
g30
sg10
g30
sg11
I-200000
sg12
I-140264
sg13
g30
sg14
I0
sg15
g30
sg16
I202052
sg17
I0
sg18
I100000
sg19
I1
sg20
I4221891
sg21
g30
sg22
I201483
sg23
F0.0
sg24
I76399
sg25
I394475
sg26
F0.0
sg27
I4160672
ssS'DIMICHELE RICHARD G'
p340
(dp341
g3
g30
sg4
I0
sg5
I35812
sg6
I0
sg7
I694862
sg8
S'richard.dimichele@enron.com'
p342
sg10
g30
sg11
I0
sg12
I0
sg13
g30
sg14
I0
sg15
g30
sg16
I374689
sg17
I0
sg18
I1000000
sg19
I1
sg20
I8317782
sg21
g30
sg22
I126027
sg23
F0.0
sg24
I262788
sg25
I2368151
sg26
F0.0
sg27
I8191755
ssS'BHATNAGAR SANJAY'
p343
(dp344
g3
I523
sg4
I0
sg5
I0
sg6
I0
sg7
I0
sg8
S'sanjay.bhatnagar@enron.com'
p345
sg10
I0
sg11
I0
sg12
I15456290
sg13
I463
sg14
I0
sg15
I29
sg16
I137864
sg17
I137864
sg18
I0
sg19
I0
sg20
I0
sg21
I1
sg22
I-2604490
sg23
F0.0
sg24
I0
sg25
I15456290
sg26
F0.0019120458891013384
sg27
I2604490
ssS'CARTER REBECCA C'
p346
(dp347
g3
I312
sg4
I0
sg5
I0
sg6
I0
sg7
I75000
sg8
S'rebecca.carter@enron.com'
p348
sg10
I29
sg11
I-159792
sg12
I-307301
sg13
I196
sg14
I0
sg15
I15
sg16
I540
sg17
I0
sg18
I300000
sg19
I0
sg20
I0
sg21
I7
sg22
I307301
sg23
F1.9333333333333333
sg24
I261809
sg25
I477557
sg26
F0.022435897435897436
sg27
I0
ssS'BUCHANAN HAROLD G'
p349
(dp350
g3
I1088
sg4
I0
sg5
I600
sg6
I0
sg7
I304805
sg8
S'john.buchanan@enron.com'
p351
sg10
I0
sg11
I0
sg12
I0
sg13
I23
sg14
I0
sg15
I125
sg16
I1215
sg17
I0
sg18
I500000
sg19
I0
sg20
I1014505
sg21
I0
sg22
I189041
sg23
F0.0
sg24
I248017
sg25
I1054637
sg26
F0.0
sg27
I825464
ssS'YEAP SOON'
p352
(dp353
g3
g30
sg4
I0
sg5
I55097
sg6
I0
sg7
I0
sg8
g30
sg10
g30
sg11
I0
sg12
I0
sg13
g30
sg14
I0
sg15
g30
sg16
I0
sg17
I0
sg18
I0
sg19
I1
sg20
I192758
sg21
g30
sg22
I0
sg23
F0.0
sg24
I0
sg25
I55097
sg26
F0.0
sg27
I192758
ssS'MURRAY JULIA H'
p354
(dp355
g3
I2192
sg4
I0
sg5
I57580
sg6
I0
sg7
I125000
sg8
S'julia.murray@enron.com'
p356
sg10
I11
sg11
I0
sg12
I0
sg13
I395
sg14
I0
sg15
I45
sg16
I330
sg17
I0
sg18
I400000
sg19
I0
sg20
I597461
sg21
I2
sg22
I196983
sg23
F0.24444444444444444
sg24
I229284
sg25
I812194
sg26
F0.0009124087591240876
sg27
I400478
ssS'GARLAND C KEVIN'
p357
(dp358
g3
I209
sg4
I0
sg5
I48405
sg6
I0
sg7
I375304
sg8
S'kevin.garland@enron.com'
p359
sg10
I10
sg11
I0
sg12
I0
sg13
I178
sg14
I0
sg15
I44
sg16
I60814
sg17
I0
sg18
I850000
sg19
I0
sg20
I896153
sg21
I27
sg22
I259907
sg23
F0.22727272727272727
sg24
I231946
sg25
I1566469
sg26
F0.1291866028708134
sg27
I636246
ssS'DODSON KEITH'
p360
(dp361
g3
I176
sg4
I0
sg5
I28164
sg6
I0
sg7
I0
sg8
S'keith.dodson@enron.com'
p362
sg10
I10
sg11
I0
sg12
I0
sg13
I114
sg14
I0
sg15
I14
sg16
I774
sg17
I0
sg18
I70000
sg19
I0
sg20
I0
sg21
I3
sg22
I0
sg23
F0.7142857142857143
sg24
I221003
sg25
I319941
sg26
F0.017045454545454544
sg27
I0
ssS'YEAGER F SCOTT'
p363
(dp364
g3
g30
sg4
I0
sg5
I53947
sg6
I1
sg7
I0
sg8
S'scott.yeager@enron.com'
p365
sg10
g30
sg11
I0
sg12
I0
sg13
g30
sg14
I0
sg15
g30
sg16
I147950
sg17
I0
sg18
I0
sg19
I1
sg20
I11884758
sg21
g30
sg22
I3576206
sg23
F0.0
sg24
I158403
sg25
I360300
sg26
F0.0
sg27
I8308552
ssS'HIRKO JOSEPH'
p366
(dp367
g3
g30
sg4
I10259
sg5
I77978
sg6
I1
sg7
I0
sg8
S'joe.hirko@enron.com'
p368
sg10
g30
sg11
I0
sg12
I0
sg13
g30
sg14
I0
sg15
g30
sg16
I2856
sg17
I0
sg18
I0
sg19
I1
sg20
I30766064
sg21
g30
sg22
I0
sg23
F0.0
sg24
I0
sg25
I91093
sg26
F0.0
sg27
I30766064
ssS'DIETRICH JANET R'
p369
(dp370
g3
I2572
sg4
I0
sg5
I3475
sg6
I0
sg7
I556416
sg8
S'janet.dietrich@enron.com'
p371
sg10
I305
sg11
I0
sg12
I0
sg13
I1902
sg14
I0
sg15
I63
sg16
I473
sg17
I0
sg18
I600000
sg19
I0
sg20
I1865087
sg21
I14
sg22
I315068
sg23
F4.841269841269841
sg24
I250100
sg25
I1410464
sg26
F0.005443234836702955
sg27
I1550019
ssS'DERRICK JR. JAMES V'
p372
(dp373
g3
I2181
sg4
I0
sg5
I51124
sg6
I0
sg7
I484000
sg8
S'james.derrick@enron.com'
p374
sg10
I64
sg11
I-1284000
sg12
I-1787380
sg13
I1401
sg14
I0
sg15
I909
sg16
I7482
sg17
I0
sg18
I800000
sg19
I0
sg20
I8831913
sg21
I20
sg22
I1787380
sg23
F0.0704070407040704
sg24
I492375
sg25
I550981
sg26
F0.009170105456212746
sg27
I8831913
ssS'FREVERT MARK A'
p375
(dp376
g3
I3275
sg4
I6426990
sg5
I86987
sg6
I0
sg7
I1617011
sg8
S'mark.frevert@enron.com'
p377
sg10
I242
sg11
I-3367011
sg12
I0
sg13
I2979
sg14
I2000000
sg15
I21
sg16
I7427621
sg17
I0
sg18
I2000000
sg19
I0
sg20
I14622185
sg21
I6
sg22
I4188667
sg23
F11.523809523809524
sg24
I1060932
sg25
I17252530
sg26
F0.00183206106870229
sg27
I10433518
ssS'PAI LOU L'
p378
(dp379
g3
g30
sg4
I0
sg5
I32047
sg6
I0
sg7
I0
sg8
S'lou.pai@enron.com'
p380
sg10
g30
sg11
I0
sg12
I0
sg13
g30
sg14
I0
sg15
g30
sg16
I1829457
sg17
I0
sg18
I1000000
sg19
I1
sg20
I23817930
sg21
g30
sg22
I8453763
sg23
F0.0
sg24
I261879
sg25
I3123383
sg26
F0.0
sg27
I15364167
ssS'BAY FRANKLIN R'
p381
(dp382
g3
g30
sg4
I260455
sg5
I129142
sg6
I0
sg7
I0
sg8
S'frank.bay@enron.com'
p383
sg10
g30
sg11
I-201641
sg12
I-82782
sg13
g30
sg14
I0
sg15
g30
sg16
I69
sg17
I0
sg18
I400000
sg19
I1
sg20
I63014
sg21
g30
sg22
I145796
sg23
F0.0
sg24
I239671
sg25
I827696
sg26
F0.0
sg27
I0
ssS'HAYSLETT RODERICK J'
p384
(dp385
g3
I2649
sg4
I0
sg5
I0
sg6
I0
sg7
I0
sg8
S'rod.hayslett@enron.com'
p386
sg10
I35
sg11
I0
sg12
I0
sg13
I571
sg14
I0
sg15
I1061
sg16
I0
sg17
I0
sg18
I0
sg19
I0
sg20
I346663
sg21
I38
sg22
I346663
sg23
F0.03298774740810556
sg24
I0
sg25
I0
sg26
F0.014345035862589657
sg27
I0
ssS'FUGH JOHN L'
p387
(dp388
g3
g30
sg4
I50591
sg5
I0
sg6
I0
sg7
I0
sg8
g30
sg10
g30
sg11
I0
sg12
I0
sg13
g30
sg14
I0
sg15
g30
sg16
I0
sg17
I0
sg18
I0
sg19
I1
sg20
I176378
sg21
g30
sg22
I0
sg23
F0.0
sg24
I0
sg25
I50591
sg26
F0.0
sg27
I176378
ssS'FALLON JAMES B'
p389
(dp390
g3
I1755
sg4
I0
sg5
I95924
sg6
I0
sg7
I374347
sg8
S'jim.fallon@enron.com'
p391
sg10
I42
sg11
I0
sg12
I0
sg13
I1604
sg14
I0
sg15
I75
sg16
I401481
sg17
I0
sg18
I2500000
sg19
I0
sg20
I2332399
sg21
I37
sg22
I1392142
sg23
F0.56
sg24
I304588
sg25
I3676340
sg26
F0.021082621082621083
sg27
I940257
ssS'KOENIG MARK E'
p392
(dp393
g3
I2374
sg4
I0
sg5
I127017
sg6
I1
sg7
I300000
sg8
S'mark.koenig@enron.com'
p394
sg10
I53
sg11
I0
sg12
I0
sg13
I2271
sg14
I0
sg15
I61
sg16
I150458
sg17
I0
sg18
I700000
sg19
I0
sg20
I1920055
sg21
I15
sg22
I1248318
sg23
F0.8688524590163934
sg24
I309946
sg25
I1587421
sg26
F0.006318449873631003
sg27
I671737
ssS'SAVAGE FRANK'
p395
(dp396
g3
g30
sg4
I0
sg5
I0
sg6
I0
sg7
I0
sg8
g30
sg10
g30
sg11
I-121284
sg12
I0
sg13
g30
sg14
I0
sg15
g30
sg16
I0
sg17
I125034
sg18
I0
sg19
I1
sg20
I0
sg21
g30
sg22
I0
sg23
F0.0
sg24
I0
sg25
I3750
sg26
F0.0
sg27
I0
ssS'IZZO LAWRENCE L'
p397
(dp398
g3
I496
sg4
I0
sg5
I28093
sg6
I0
sg7
I312500
sg8
S'larry.izzo@enron.com'
p399
sg10
I28
sg11
I0
sg12
I0
sg13
I437
sg14
I0
sg15
I19
sg16
I1553729
sg17
I0
sg18
I0
sg19
I0
sg20
I5819980
sg21
I5
sg22
I3654808
sg23
F1.4736842105263157
sg24
I85274
sg25
I1979596
sg26
F0.010080645161290322
sg27
I2165172
ssS'TILNEY ELIZABETH A'
p400
(dp401
g3
I460
sg4
I0
sg5
I0
sg6
I0
sg7
I275000
sg8
S'elizabeth.tilney@enron.com'
p402
sg10
I10
sg11
I-575000
sg12
I0
sg13
I379
sg14
I0
sg15
I19
sg16
I152055
sg17
I0
sg18
I300000
sg19
I0
sg20
I1168042
sg21
I11
sg22
I576792
sg23
F0.5263157894736842
sg24
I247338
sg25
I399393
sg26
F0.02391304347826087
sg27
I591250
ssS'MARTIN AMANDA K'
p403
(dp404
g3
I1522
sg4
I85430
sg5
I8211
sg6
I0
sg7
I5145434
sg8
S'a..martin@enron.com'
p405
sg10
I8
sg11
I0
sg12
I0
sg13
I477
sg14
I0
sg15
I230
sg16
I2818454
sg17
I0
sg18
I0
sg19
I0
sg20
I2070306
sg21
I0
sg22
I0
sg23
F0.034782608695652174
sg24
I349487
sg25
I8407016
sg26
F0.0
sg27
I2070306
ssS'BUY RICHARD B'
p406
(dp407
g3
I3523
sg4
I649584
sg5
I0
sg6
I0
sg7
I769862
sg8
S'rick.buy@enron.com'
p408
sg10
I156
sg11
I-694862
sg12
I0
sg13
I2333
sg14
I0
sg15
I1053
sg16
I400572
sg17
I0
sg18
I900000
sg19
I0
sg20
I3444470
sg21
I71
sg22
I901657
sg23
F0.14814814814814814
sg24
I330546
sg25
I2355702
sg26
F0.02015327845586148
sg27
I2542813
ssS'GRAMM WENDY L'
p409
(dp410
g3
g30
sg4
I0
sg5
I0
sg6
I0
sg7
I0
sg8
g30
sg10
g30
sg11
I0
sg12
I0
sg13
g30
sg14
I0
sg15
g30
sg16
I0
sg17
I119292
sg18
I0
sg19
I1
sg20
I0
sg21
g30
sg22
I0
sg23
F0.0
sg24
I0
sg25
I119292
sg26
F0.0
sg27
I0
ssS'CAUSEY RICHARD A'
p411
(dp412
g3
I1892
sg4
I0
sg5
I30674
sg6
I1
sg7
I350000
sg8
S'richard.causey@enron.com'
p413
sg10
I58
sg11
I-235000
sg12
I0
sg13
I1585
sg14
I0
sg15
I49
sg16
I307895
sg17
I0
sg18
I1000000
sg19
I0
sg20
I2502063
sg21
I12
sg22
I2502063
sg23
F1.183673469387755
sg24
I415189
sg25
I1868758
sg26
F0.006342494714587738
sg27
I0
ssS'TAYLOR MITCHELL S'
p414
(dp415
g3
I533
sg4
I227449
sg5
I0
sg6
I0
sg7
I0
sg8
S'mitchell.taylor@enron.com'
p416
sg10
I0
sg11
I0
sg12
I0
sg13
I300
sg14
I0
sg15
I29
sg16
I0
sg17
I0
sg18
I600000
sg19
I0
sg20
I3745048
sg21
I0
sg22
I563798
sg23
F0.0
sg24
I265214
sg25
I1092663
sg26
F0.0
sg27
I3181250
ssS'DONAHUE JR JEFFREY M'
p417
(dp418
g3
I865
sg4
I0
sg5
I96268
sg6
I0
sg7
I0
sg8
S'jeff.donahue@enron.com'
p419
sg10
I188
sg11
I-300000
sg12
I0
sg13
I772
sg14
I0
sg15
I22
sg16
I891
sg17
I0
sg18
I800000
sg19
I0
sg20
I1080988
sg21
I11
sg22
I315068
sg23
F8.545454545454545
sg24
I278601
sg25
I875760
sg26
F0.012716763005780347
sg27
I765920
ssS'GLISAN JR BEN F'
p420
(dp421
g3
I873
sg4
I0
sg5
I125978
sg6
I1
sg7
I71023
sg8
S'ben.glisan@enron.com'
p422
sg10
I52
sg11
I0
sg12
I0
sg13
I874
sg14
I0
sg15
I16
sg16
I200308
sg17
I0
sg18
I600000
sg19
I0
sg20
I778546
sg21
I6
sg22
I393818
sg23
F3.25
sg24
I274975
sg25
I1272284
sg26
F0.006872852233676976
sg27
I384728
ss.