(lp0
S'poi'
p1
aS'salary'
p2
aS'total_payments'
p3
aS'bonus'
p4
aS'shared_receipt_with_poi'
p5
aS'exercised_stock_options'
p6
aS'from_messages'
p7
aS'other'
p8
aS'from_this_person_to_poi'
p9
aS'long_term_incentive'
p10
aS'expenses'
p11
aS'restricted_stock'
p12
a.